
bomb：     文件格式 elf64-x86-64


Disassembly of section .init:

0000000000400bd8 <_init>:
  400bd8:	48 83 ec 08          	sub    $0x8,%rsp
  400bdc:	48 8b 05 15 24 20 00 	mov    0x202415(%rip),%rax        # 602ff8 <_DYNAMIC+0x1d8>
  400be3:	48 85 c0             	test   %rax,%rax
  400be6:	74 02                	je     400bea <_init+0x12>
  400be8:	ff d0                	callq  *%rax
  400bea:	48 83 c4 08          	add    $0x8,%rsp
  400bee:	c3                   	retq   

Disassembly of section .plt:

0000000000400bf0 <getenv@plt-0x10>:
  400bf0:	ff 35 12 24 20 00    	pushq  0x202412(%rip)        # 603008 <_GLOBAL_OFFSET_TABLE_+0x8>
  400bf6:	ff 25 14 24 20 00    	jmpq   *0x202414(%rip)        # 603010 <_GLOBAL_OFFSET_TABLE_+0x10>
  400bfc:	0f 1f 40 00          	nopl   0x0(%rax)

0000000000400c00 <getenv@plt>:
  400c00:	ff 25 12 24 20 00    	jmpq   *0x202412(%rip)        # 603018 <_GLOBAL_OFFSET_TABLE_+0x18>
  400c06:	68 00 00 00 00       	pushq  $0x0
  400c0b:	e9 e0 ff ff ff       	jmpq   400bf0 <_init+0x18>

0000000000400c10 <__errno_location@plt>:
  400c10:	ff 25 0a 24 20 00    	jmpq   *0x20240a(%rip)        # 603020 <_GLOBAL_OFFSET_TABLE_+0x20>
  400c16:	68 01 00 00 00       	pushq  $0x1
  400c1b:	e9 d0 ff ff ff       	jmpq   400bf0 <_init+0x18>

0000000000400c20 <strcpy@plt>:
  400c20:	ff 25 02 24 20 00    	jmpq   *0x202402(%rip)        # 603028 <_GLOBAL_OFFSET_TABLE_+0x28>
  400c26:	68 02 00 00 00       	pushq  $0x2
  400c2b:	e9 c0 ff ff ff       	jmpq   400bf0 <_init+0x18>

0000000000400c30 <puts@plt>:
  400c30:	ff 25 fa 23 20 00    	jmpq   *0x2023fa(%rip)        # 603030 <_GLOBAL_OFFSET_TABLE_+0x30>
  400c36:	68 03 00 00 00       	pushq  $0x3
  400c3b:	e9 b0 ff ff ff       	jmpq   400bf0 <_init+0x18>

0000000000400c40 <write@plt>:
  400c40:	ff 25 f2 23 20 00    	jmpq   *0x2023f2(%rip)        # 603038 <_GLOBAL_OFFSET_TABLE_+0x38>
  400c46:	68 04 00 00 00       	pushq  $0x4
  400c4b:	e9 a0 ff ff ff       	jmpq   400bf0 <_init+0x18>

0000000000400c50 <fclose@plt>:
  400c50:	ff 25 ea 23 20 00    	jmpq   *0x2023ea(%rip)        # 603040 <_GLOBAL_OFFSET_TABLE_+0x40>
  400c56:	68 05 00 00 00       	pushq  $0x5
  400c5b:	e9 90 ff ff ff       	jmpq   400bf0 <_init+0x18>

0000000000400c60 <strlen@plt>:
  400c60:	ff 25 e2 23 20 00    	jmpq   *0x2023e2(%rip)        # 603048 <_GLOBAL_OFFSET_TABLE_+0x48>
  400c66:	68 06 00 00 00       	pushq  $0x6
  400c6b:	e9 80 ff ff ff       	jmpq   400bf0 <_init+0x18>

0000000000400c70 <system@plt>:
  400c70:	ff 25 da 23 20 00    	jmpq   *0x2023da(%rip)        # 603050 <_GLOBAL_OFFSET_TABLE_+0x50>
  400c76:	68 07 00 00 00       	pushq  $0x7
  400c7b:	e9 70 ff ff ff       	jmpq   400bf0 <_init+0x18>

0000000000400c80 <htons@plt>:
  400c80:	ff 25 d2 23 20 00    	jmpq   *0x2023d2(%rip)        # 603058 <_GLOBAL_OFFSET_TABLE_+0x58>
  400c86:	68 08 00 00 00       	pushq  $0x8
  400c8b:	e9 60 ff ff ff       	jmpq   400bf0 <_init+0x18>

0000000000400c90 <printf@plt>:
  400c90:	ff 25 ca 23 20 00    	jmpq   *0x2023ca(%rip)        # 603060 <_GLOBAL_OFFSET_TABLE_+0x60>
  400c96:	68 09 00 00 00       	pushq  $0x9
  400c9b:	e9 50 ff ff ff       	jmpq   400bf0 <_init+0x18>

0000000000400ca0 <rewind@plt>:
  400ca0:	ff 25 c2 23 20 00    	jmpq   *0x2023c2(%rip)        # 603068 <_GLOBAL_OFFSET_TABLE_+0x68>
  400ca6:	68 0a 00 00 00       	pushq  $0xa
  400cab:	e9 40 ff ff ff       	jmpq   400bf0 <_init+0x18>

0000000000400cb0 <dup@plt>:
  400cb0:	ff 25 ba 23 20 00    	jmpq   *0x2023ba(%rip)        # 603070 <_GLOBAL_OFFSET_TABLE_+0x70>
  400cb6:	68 0b 00 00 00       	pushq  $0xb
  400cbb:	e9 30 ff ff ff       	jmpq   400bf0 <_init+0x18>

0000000000400cc0 <close@plt>:
  400cc0:	ff 25 b2 23 20 00    	jmpq   *0x2023b2(%rip)        # 603078 <_GLOBAL_OFFSET_TABLE_+0x78>
  400cc6:	68 0c 00 00 00       	pushq  $0xc
  400ccb:	e9 20 ff ff ff       	jmpq   400bf0 <_init+0x18>

0000000000400cd0 <fputc@plt>:
  400cd0:	ff 25 aa 23 20 00    	jmpq   *0x2023aa(%rip)        # 603080 <_GLOBAL_OFFSET_TABLE_+0x80>
  400cd6:	68 0d 00 00 00       	pushq  $0xd
  400cdb:	e9 10 ff ff ff       	jmpq   400bf0 <_init+0x18>

0000000000400ce0 <fgets@plt>:
  400ce0:	ff 25 a2 23 20 00    	jmpq   *0x2023a2(%rip)        # 603088 <_GLOBAL_OFFSET_TABLE_+0x88>
  400ce6:	68 0e 00 00 00       	pushq  $0xe
  400ceb:	e9 00 ff ff ff       	jmpq   400bf0 <_init+0x18>

0000000000400cf0 <tmpfile@plt>:
  400cf0:	ff 25 9a 23 20 00    	jmpq   *0x20239a(%rip)        # 603090 <_GLOBAL_OFFSET_TABLE_+0x90>
  400cf6:	68 0f 00 00 00       	pushq  $0xf
  400cfb:	e9 f0 fe ff ff       	jmpq   400bf0 <_init+0x18>

0000000000400d00 <signal@plt>:
  400d00:	ff 25 92 23 20 00    	jmpq   *0x202392(%rip)        # 603098 <_GLOBAL_OFFSET_TABLE_+0x98>
  400d06:	68 10 00 00 00       	pushq  $0x10
  400d0b:	e9 e0 fe ff ff       	jmpq   400bf0 <_init+0x18>

0000000000400d10 <gethostbyname@plt>:
  400d10:	ff 25 8a 23 20 00    	jmpq   *0x20238a(%rip)        # 6030a0 <_GLOBAL_OFFSET_TABLE_+0xa0>
  400d16:	68 11 00 00 00       	pushq  $0x11
  400d1b:	e9 d0 fe ff ff       	jmpq   400bf0 <_init+0x18>

0000000000400d20 <fprintf@plt>:
  400d20:	ff 25 82 23 20 00    	jmpq   *0x202382(%rip)        # 6030a8 <_GLOBAL_OFFSET_TABLE_+0xa8>
  400d26:	68 12 00 00 00       	pushq  $0x12
  400d2b:	e9 c0 fe ff ff       	jmpq   400bf0 <_init+0x18>

0000000000400d30 <inet_pton@plt>:
  400d30:	ff 25 7a 23 20 00    	jmpq   *0x20237a(%rip)        # 6030b0 <_GLOBAL_OFFSET_TABLE_+0xb0>
  400d36:	68 13 00 00 00       	pushq  $0x13
  400d3b:	e9 b0 fe ff ff       	jmpq   400bf0 <_init+0x18>

0000000000400d40 <fflush@plt>:
  400d40:	ff 25 72 23 20 00    	jmpq   *0x202372(%rip)        # 6030b8 <_GLOBAL_OFFSET_TABLE_+0xb8>
  400d46:	68 14 00 00 00       	pushq  $0x14
  400d4b:	e9 a0 fe ff ff       	jmpq   400bf0 <_init+0x18>

0000000000400d50 <__isoc99_sscanf@plt>:
  400d50:	ff 25 6a 23 20 00    	jmpq   *0x20236a(%rip)        # 6030c0 <_GLOBAL_OFFSET_TABLE_+0xc0>
  400d56:	68 15 00 00 00       	pushq  $0x15
  400d5b:	e9 90 fe ff ff       	jmpq   400bf0 <_init+0x18>

0000000000400d60 <bcopy@plt>:
  400d60:	ff 25 62 23 20 00    	jmpq   *0x202362(%rip)        # 6030c8 <_GLOBAL_OFFSET_TABLE_+0xc8>
  400d66:	68 16 00 00 00       	pushq  $0x16
  400d6b:	e9 80 fe ff ff       	jmpq   400bf0 <_init+0x18>

0000000000400d70 <cuserid@plt>:
  400d70:	ff 25 5a 23 20 00    	jmpq   *0x20235a(%rip)        # 6030d0 <_GLOBAL_OFFSET_TABLE_+0xd0>
  400d76:	68 17 00 00 00       	pushq  $0x17
  400d7b:	e9 70 fe ff ff       	jmpq   400bf0 <_init+0x18>

0000000000400d80 <fopen@plt>:
  400d80:	ff 25 52 23 20 00    	jmpq   *0x202352(%rip)        # 6030d8 <_GLOBAL_OFFSET_TABLE_+0xd8>
  400d86:	68 18 00 00 00       	pushq  $0x18
  400d8b:	e9 60 fe ff ff       	jmpq   400bf0 <_init+0x18>

0000000000400d90 <bzero@plt>:
  400d90:	ff 25 4a 23 20 00    	jmpq   *0x20234a(%rip)        # 6030e0 <_GLOBAL_OFFSET_TABLE_+0xe0>
  400d96:	68 19 00 00 00       	pushq  $0x19
  400d9b:	e9 50 fe ff ff       	jmpq   400bf0 <_init+0x18>

0000000000400da0 <strcat@plt>:
  400da0:	ff 25 42 23 20 00    	jmpq   *0x202342(%rip)        # 6030e8 <_GLOBAL_OFFSET_TABLE_+0xe8>
  400da6:	68 1a 00 00 00       	pushq  $0x1a
  400dab:	e9 40 fe ff ff       	jmpq   400bf0 <_init+0x18>

0000000000400db0 <sprintf@plt>:
  400db0:	ff 25 3a 23 20 00    	jmpq   *0x20233a(%rip)        # 6030f0 <_GLOBAL_OFFSET_TABLE_+0xf0>
  400db6:	68 1b 00 00 00       	pushq  $0x1b
  400dbb:	e9 30 fe ff ff       	jmpq   400bf0 <_init+0x18>

0000000000400dc0 <exit@plt>:
  400dc0:	ff 25 32 23 20 00    	jmpq   *0x202332(%rip)        # 6030f8 <_GLOBAL_OFFSET_TABLE_+0xf8>
  400dc6:	68 1c 00 00 00       	pushq  $0x1c
  400dcb:	e9 20 fe ff ff       	jmpq   400bf0 <_init+0x18>

0000000000400dd0 <connect@plt>:
  400dd0:	ff 25 2a 23 20 00    	jmpq   *0x20232a(%rip)        # 603100 <_GLOBAL_OFFSET_TABLE_+0x100>
  400dd6:	68 1d 00 00 00       	pushq  $0x1d
  400ddb:	e9 10 fe ff ff       	jmpq   400bf0 <_init+0x18>

0000000000400de0 <fwrite@plt>:
  400de0:	ff 25 22 23 20 00    	jmpq   *0x202322(%rip)        # 603108 <_GLOBAL_OFFSET_TABLE_+0x108>
  400de6:	68 1e 00 00 00       	pushq  $0x1e
  400deb:	e9 00 fe ff ff       	jmpq   400bf0 <_init+0x18>

0000000000400df0 <sleep@plt>:
  400df0:	ff 25 1a 23 20 00    	jmpq   *0x20231a(%rip)        # 603110 <_GLOBAL_OFFSET_TABLE_+0x110>
  400df6:	68 1f 00 00 00       	pushq  $0x1f
  400dfb:	e9 f0 fd ff ff       	jmpq   400bf0 <_init+0x18>

0000000000400e00 <__ctype_b_loc@plt>:
  400e00:	ff 25 12 23 20 00    	jmpq   *0x202312(%rip)        # 603118 <_GLOBAL_OFFSET_TABLE_+0x118>
  400e06:	68 20 00 00 00       	pushq  $0x20
  400e0b:	e9 e0 fd ff ff       	jmpq   400bf0 <_init+0x18>

0000000000400e10 <socket@plt>:
  400e10:	ff 25 0a 23 20 00    	jmpq   *0x20230a(%rip)        # 603120 <_GLOBAL_OFFSET_TABLE_+0x120>
  400e16:	68 21 00 00 00       	pushq  $0x21
  400e1b:	e9 d0 fd ff ff       	jmpq   400bf0 <_init+0x18>

Disassembly of section .text:

0000000000400e20 <_start>:
  400e20:	31 ed                	xor    %ebp,%ebp
  400e22:	49 89 d1             	mov    %rdx,%r9
  400e25:	5e                   	pop    %rsi
  400e26:	48 89 e2             	mov    %rsp,%rdx
  400e29:	48 83 e4 f0          	and    $0xfffffffffffffff0,%rsp
  400e2d:	50                   	push   %rax
  400e2e:	54                   	push   %rsp
  400e2f:	49 c7 c0 a0 1f 40 00 	mov    $0x401fa0,%r8
  400e36:	48 c7 c1 30 1f 40 00 	mov    $0x401f30,%rcx
  400e3d:	48 c7 c7 16 0f 40 00 	mov    $0x400f16,%rdi
  400e44:	ff 15 a6 21 20 00    	callq  *0x2021a6(%rip)        # 602ff0 <_DYNAMIC+0x1d0>
  400e4a:	f4                   	hlt    
  400e4b:	0f 1f 44 00 00       	nopl   0x0(%rax,%rax,1)

0000000000400e50 <deregister_tm_clones>:
  400e50:	b8 97 35 60 00       	mov    $0x603597,%eax
  400e55:	55                   	push   %rbp
  400e56:	48 2d 90 35 60 00    	sub    $0x603590,%rax
  400e5c:	48 83 f8 0e          	cmp    $0xe,%rax
  400e60:	48 89 e5             	mov    %rsp,%rbp
  400e63:	76 1b                	jbe    400e80 <deregister_tm_clones+0x30>
  400e65:	b8 00 00 00 00       	mov    $0x0,%eax
  400e6a:	48 85 c0             	test   %rax,%rax
  400e6d:	74 11                	je     400e80 <deregister_tm_clones+0x30>
  400e6f:	5d                   	pop    %rbp
  400e70:	bf 90 35 60 00       	mov    $0x603590,%edi
  400e75:	ff e0                	jmpq   *%rax
  400e77:	66 0f 1f 84 00 00 00 	nopw   0x0(%rax,%rax,1)
  400e7e:	00 00 
  400e80:	5d                   	pop    %rbp
  400e81:	c3                   	retq   
  400e82:	0f 1f 40 00          	nopl   0x0(%rax)
  400e86:	66 2e 0f 1f 84 00 00 	nopw   %cs:0x0(%rax,%rax,1)
  400e8d:	00 00 00 

0000000000400e90 <register_tm_clones>:
  400e90:	be 90 35 60 00       	mov    $0x603590,%esi
  400e95:	55                   	push   %rbp
  400e96:	48 81 ee 90 35 60 00 	sub    $0x603590,%rsi
  400e9d:	48 c1 fe 03          	sar    $0x3,%rsi
  400ea1:	48 89 e5             	mov    %rsp,%rbp
  400ea4:	48 89 f0             	mov    %rsi,%rax
  400ea7:	48 c1 e8 3f          	shr    $0x3f,%rax
  400eab:	48 01 c6             	add    %rax,%rsi
  400eae:	48 d1 fe             	sar    %rsi
  400eb1:	74 15                	je     400ec8 <register_tm_clones+0x38>
  400eb3:	b8 00 00 00 00       	mov    $0x0,%eax
  400eb8:	48 85 c0             	test   %rax,%rax
  400ebb:	74 0b                	je     400ec8 <register_tm_clones+0x38>
  400ebd:	5d                   	pop    %rbp
  400ebe:	bf 90 35 60 00       	mov    $0x603590,%edi
  400ec3:	ff e0                	jmpq   *%rax
  400ec5:	0f 1f 00             	nopl   (%rax)
  400ec8:	5d                   	pop    %rbp
  400ec9:	c3                   	retq   
  400eca:	66 0f 1f 44 00 00    	nopw   0x0(%rax,%rax,1)

0000000000400ed0 <__do_global_dtors_aux>:
  400ed0:	80 3d e1 26 20 00 00 	cmpb   $0x0,0x2026e1(%rip)        # 6035b8 <completed.6963>
  400ed7:	75 11                	jne    400eea <__do_global_dtors_aux+0x1a>
  400ed9:	55                   	push   %rbp
  400eda:	48 89 e5             	mov    %rsp,%rbp
  400edd:	e8 6e ff ff ff       	callq  400e50 <deregister_tm_clones>
  400ee2:	5d                   	pop    %rbp
  400ee3:	c6 05 ce 26 20 00 01 	movb   $0x1,0x2026ce(%rip)        # 6035b8 <completed.6963>
  400eea:	f3 c3                	repz retq 
  400eec:	0f 1f 40 00          	nopl   0x0(%rax)

0000000000400ef0 <frame_dummy>:
  400ef0:	bf 18 2e 60 00       	mov    $0x602e18,%edi
  400ef5:	48 83 3f 00          	cmpq   $0x0,(%rdi)
  400ef9:	75 05                	jne    400f00 <frame_dummy+0x10>
  400efb:	eb 93                	jmp    400e90 <register_tm_clones>
  400efd:	0f 1f 00             	nopl   (%rax)
  400f00:	b8 00 00 00 00       	mov    $0x0,%eax
  400f05:	48 85 c0             	test   %rax,%rax
  400f08:	74 f1                	je     400efb <frame_dummy+0xb>
  400f0a:	55                   	push   %rbp
  400f0b:	48 89 e5             	mov    %rsp,%rbp
  400f0e:	ff d0                	callq  *%rax
  400f10:	5d                   	pop    %rbp
  400f11:	e9 7a ff ff ff       	jmpq   400e90 <register_tm_clones>

0000000000400f16 <main>:
  400f16:	55                   	push   %rbp
  400f17:	48 89 e5             	mov    %rsp,%rbp
  400f1a:	48 83 ec 20          	sub    $0x20,%rsp
  400f1e:	89 7d ec             	mov    %edi,-0x14(%rbp)
  400f21:	48 89 75 e0          	mov    %rsi,-0x20(%rbp)
  400f25:	83 7d ec 01          	cmpl   $0x1,-0x14(%rbp)
  400f29:	75 13                	jne    400f3e <main+0x28>
  400f2b:	48 8b 05 7e 26 20 00 	mov    0x20267e(%rip),%rax        # 6035b0 <stdin@@GLIBC_2.2.5>
  400f32:	48 89 05 87 26 20 00 	mov    %rax,0x202687(%rip)        # 6035c0 <infile>
  400f39:	e9 88 00 00 00       	jmpq   400fc6 <main+0xb0>
  400f3e:	83 7d ec 02          	cmpl   $0x2,-0x14(%rbp)
  400f42:	75 5d                	jne    400fa1 <main+0x8b>
  400f44:	48 8b 45 e0          	mov    -0x20(%rbp),%rax
  400f48:	48 83 c0 08          	add    $0x8,%rax
  400f4c:	48 8b 00             	mov    (%rax),%rax
  400f4f:	48 8d 35 62 10 00 00 	lea    0x1062(%rip),%rsi        # 401fb8 <_IO_stdin_used+0x8>
  400f56:	48 89 c7             	mov    %rax,%rdi
  400f59:	e8 22 fe ff ff       	callq  400d80 <fopen@plt>
  400f5e:	48 89 05 5b 26 20 00 	mov    %rax,0x20265b(%rip)        # 6035c0 <infile>
  400f65:	48 8b 05 54 26 20 00 	mov    0x202654(%rip),%rax        # 6035c0 <infile>
  400f6c:	48 85 c0             	test   %rax,%rax
  400f6f:	75 55                	jne    400fc6 <main+0xb0>
  400f71:	48 8b 45 e0          	mov    -0x20(%rbp),%rax
  400f75:	48 83 c0 08          	add    $0x8,%rax
  400f79:	48 8b 10             	mov    (%rax),%rdx
  400f7c:	48 8b 45 e0          	mov    -0x20(%rbp),%rax
  400f80:	48 8b 00             	mov    (%rax),%rax
  400f83:	48 89 c6             	mov    %rax,%rsi
  400f86:	48 8d 3d 2d 10 00 00 	lea    0x102d(%rip),%rdi        # 401fba <_IO_stdin_used+0xa>
  400f8d:	b8 00 00 00 00       	mov    $0x0,%eax
  400f92:	e8 f9 fc ff ff       	callq  400c90 <printf@plt>
  400f97:	bf 08 00 00 00       	mov    $0x8,%edi
  400f9c:	e8 1f fe ff ff       	callq  400dc0 <exit@plt>
  400fa1:	48 8b 45 e0          	mov    -0x20(%rbp),%rax
  400fa5:	48 8b 00             	mov    (%rax),%rax
  400fa8:	48 89 c6             	mov    %rax,%rsi
  400fab:	48 8d 3d 25 10 00 00 	lea    0x1025(%rip),%rdi        # 401fd7 <_IO_stdin_used+0x27>
  400fb2:	b8 00 00 00 00       	mov    $0x0,%eax
  400fb7:	e8 d4 fc ff ff       	callq  400c90 <printf@plt>
  400fbc:	bf 08 00 00 00       	mov    $0x8,%edi
  400fc1:	e8 fa fd ff ff       	callq  400dc0 <exit@plt>
  400fc6:	e8 9b 05 00 00       	callq  401566 <initialize_bomb>
  400fcb:	48 8d 3d 26 10 00 00 	lea    0x1026(%rip),%rdi        # 401ff8 <_IO_stdin_used+0x48>
  400fd2:	e8 59 fc ff ff       	callq  400c30 <puts@plt>
  400fd7:	48 8d 3d 5a 10 00 00 	lea    0x105a(%rip),%rdi        # 402038 <_IO_stdin_used+0x88>
  400fde:	e8 4d fc ff ff       	callq  400c30 <puts@plt>
  400fe3:	e8 66 06 00 00       	callq  40164e <read_line>
  400fe8:	48 89 45 f8          	mov    %rax,-0x8(%rbp)
  400fec:	48 8b 45 f8          	mov    -0x8(%rbp),%rax
  400ff0:	48 89 c7             	mov    %rax,%rdi
  400ff3:	e8 58 00 00 00       	callq  401050 <phase_1>
  400ff8:	e8 68 0e 00 00       	callq  401e65 <phase_defused>
  400ffd:	48 8d 3d 64 10 00 00 	lea    0x1064(%rip),%rdi        # 402068 <_IO_stdin_used+0xb8>
  401004:	e8 27 fc ff ff       	callq  400c30 <puts@plt>
  401009:	e8 40 06 00 00       	callq  40164e <read_line>
  40100e:	48 89 45 f8          	mov    %rax,-0x8(%rbp)
  401012:	48 8b 45 f8          	mov    -0x8(%rbp),%rax
  401016:	48 89 c7             	mov    %rax,%rdi
  401019:	e8 5d 00 00 00       	callq  40107b <phase_2>
  40101e:	e8 42 0e 00 00       	callq  401e65 <phase_defused>
  401023:	48 8d 3d 67 10 00 00 	lea    0x1067(%rip),%rdi        # 402091 <_IO_stdin_used+0xe1>
  40102a:	e8 01 fc ff ff       	callq  400c30 <puts@plt>
  40102f:	e8 1a 06 00 00       	callq  40164e <read_line>
  401034:	48 89 45 f8          	mov    %rax,-0x8(%rbp)
  401038:	48 8b 45 f8          	mov    -0x8(%rbp),%rax
  40103c:	48 89 c7             	mov    %rax,%rdi
  40103f:	e8 90 00 00 00       	callq  4010d4 <phase_3>
  401044:	e8 1c 0e 00 00       	callq  401e65 <phase_defused>
  401049:	b8 00 00 00 00       	mov    $0x0,%eax
  40104e:	c9                   	leaveq 
  40104f:	c3                   	retq   

0000000000401050 <phase_1>:
  401050:	55                   	push   %rbp
  401051:	48 89 e5             	mov    %rsp,%rbp
  401054:	48 83 ec 10          	sub    $0x10,%rsp
  401058:	48 89 7d f8          	mov    %rdi,-0x8(%rbp)
  40105c:	48 8b 45 f8          	mov    -0x8(%rbp),%rax
  401060:	48 8d 35 49 10 00 00 	lea    0x1049(%rip),%rsi        # 4020b0 <_IO_stdin_used+0x100>
  401067:	48 89 c7             	mov    %rax,%rdi
  40106a:	e8 81 03 00 00       	callq  4013f0 <strings_not_equal>
  40106f:	85 c0                	test   %eax,%eax
  401071:	74 05                	je     401078 <phase_1+0x28>
  401073:	e8 b1 0d 00 00       	callq  401e29 <explode_bomb>
  401078:	90                   	nop
  401079:	c9                   	leaveq 
  40107a:	c3                   	retq   

000000000040107b <phase_2>:
  40107b:	55                   	push   %rbp
  40107c:	48 89 e5             	mov    %rsp,%rbp
  40107f:	48 83 ec 30          	sub    $0x30,%rsp
  401083:	48 89 7d d8          	mov    %rdi,-0x28(%rbp)
  401087:	48 8d 55 e0          	lea    -0x20(%rbp),%rdx
  40108b:	48 8b 45 d8          	mov    -0x28(%rbp),%rax
  40108f:	48 89 d6             	mov    %rdx,%rsi
  401092:	48 89 c7             	mov    %rax,%rdi
  401095:	e8 b9 02 00 00       	callq  401353 <read_six_numbers>
  40109a:	c7 45 fc 01 00 00 00 	movl   $0x1,-0x4(%rbp)
  4010a1:	eb 28                	jmp    4010cb <phase_2+0x50>
  4010a3:	8b 45 fc             	mov    -0x4(%rbp),%eax
  4010a6:	48 98                	cltq   
  4010a8:	8b 54 85 e0          	mov    -0x20(%rbp,%rax,4),%edx
  4010ac:	8b 45 fc             	mov    -0x4(%rbp),%eax
  4010af:	83 e8 01             	sub    $0x1,%eax
  4010b2:	48 98                	cltq   
  4010b4:	8b 44 85 e0          	mov    -0x20(%rbp,%rax,4),%eax
  4010b8:	83 c0 04             	add    $0x4,%eax
  4010bb:	2b 45 fc             	sub    -0x4(%rbp),%eax
  4010be:	39 c2                	cmp    %eax,%edx
  4010c0:	74 05                	je     4010c7 <phase_2+0x4c>
  4010c2:	e8 62 0d 00 00       	callq  401e29 <explode_bomb>
  4010c7:	83 45 fc 01          	addl   $0x1,-0x4(%rbp)
  4010cb:	83 7d fc 05          	cmpl   $0x5,-0x4(%rbp)
  4010cf:	7e d2                	jle    4010a3 <phase_2+0x28>
  4010d1:	90                   	nop
  4010d2:	c9                   	leaveq 
  4010d3:	c3                   	retq   

00000000004010d4 <phase_3>:
  4010d4:	55                   	push   %rbp
  4010d5:	48 89 e5             	mov    %rsp,%rbp
  4010d8:	48 83 ec 30          	sub    $0x30,%rsp
  4010dc:	48 89 7d d8          	mov    %rdi,-0x28(%rbp)
  4010e0:	c7 45 f8 00 00 00 00 	movl   $0x0,-0x8(%rbp)
  4010e7:	48 8d 75 f0          	lea    -0x10(%rbp),%rsi
  4010eb:	48 8d 4d ef          	lea    -0x11(%rbp),%rcx
  4010ef:	48 8d 55 f4          	lea    -0xc(%rbp),%rdx
  4010f3:	48 8b 45 d8          	mov    -0x28(%rbp),%rax
  4010f7:	49 89 f0             	mov    %rsi,%r8
  4010fa:	48 8d 35 d9 0f 00 00 	lea    0xfd9(%rip),%rsi        # 4020da <_IO_stdin_used+0x12a>
  401101:	48 89 c7             	mov    %rax,%rdi
  401104:	b8 00 00 00 00       	mov    $0x0,%eax
  401109:	e8 42 fc ff ff       	callq  400d50 <__isoc99_sscanf@plt>
  40110e:	89 45 f8             	mov    %eax,-0x8(%rbp)
  401111:	83 7d f8 02          	cmpl   $0x2,-0x8(%rbp)
  401115:	7f 05                	jg     40111c <phase_3+0x48>
  401117:	e8 0d 0d 00 00       	callq  401e29 <explode_bomb>
  40111c:	8b 45 f4             	mov    -0xc(%rbp),%eax
  40111f:	83 f8 07             	cmp    $0x7,%eax
  401122:	0f 87 d7 00 00 00    	ja     4011ff <phase_3+0x12b>
  401128:	89 c0                	mov    %eax,%eax
  40112a:	48 8d 14 85 00 00 00 	lea    0x0(,%rax,4),%rdx
  401131:	00 
  401132:	48 8d 05 ab 0f 00 00 	lea    0xfab(%rip),%rax        # 4020e4 <_IO_stdin_used+0x134>
  401139:	8b 04 02             	mov    (%rdx,%rax,1),%eax
  40113c:	48 63 d0             	movslq %eax,%rdx
  40113f:	48 8d 05 9e 0f 00 00 	lea    0xf9e(%rip),%rax        # 4020e4 <_IO_stdin_used+0x134>
  401146:	48 01 d0             	add    %rdx,%rax
  401149:	ff e0                	jmpq   *%rax
  40114b:	c6 45 ff 70          	movb   $0x70,-0x1(%rbp)
  40114f:	8b 45 f0             	mov    -0x10(%rbp),%eax
  401152:	3d 3b 03 00 00       	cmp    $0x33b,%eax
  401157:	0f 84 ad 00 00 00    	je     40120a <phase_3+0x136>
  40115d:	e8 c7 0c 00 00       	callq  401e29 <explode_bomb>
  401162:	e9 a3 00 00 00       	jmpq   40120a <phase_3+0x136>
  401167:	c6 45 ff 73          	movb   $0x73,-0x1(%rbp)
  40116b:	8b 45 f0             	mov    -0x10(%rbp),%eax
  40116e:	3d 1c 02 00 00       	cmp    $0x21c,%eax
  401173:	0f 84 94 00 00 00    	je     40120d <phase_3+0x139>
  401179:	e8 ab 0c 00 00       	callq  401e29 <explode_bomb>
  40117e:	e9 8a 00 00 00       	jmpq   40120d <phase_3+0x139>
  401183:	c6 45 ff 65          	movb   $0x65,-0x1(%rbp)
  401187:	8b 45 f0             	mov    -0x10(%rbp),%eax
  40118a:	3d ef 02 00 00       	cmp    $0x2ef,%eax
  40118f:	74 7f                	je     401210 <phase_3+0x13c>
  401191:	e8 93 0c 00 00       	callq  401e29 <explode_bomb>
  401196:	eb 78                	jmp    401210 <phase_3+0x13c>
  401198:	c6 45 ff 73          	movb   $0x73,-0x1(%rbp)
  40119c:	8b 45 f0             	mov    -0x10(%rbp),%eax
  40119f:	3d 04 02 00 00       	cmp    $0x204,%eax
  4011a4:	74 6d                	je     401213 <phase_3+0x13f>
  4011a6:	e8 7e 0c 00 00       	callq  401e29 <explode_bomb>
  4011ab:	eb 66                	jmp    401213 <phase_3+0x13f>
  4011ad:	c6 45 ff 62          	movb   $0x62,-0x1(%rbp)
  4011b1:	8b 45 f0             	mov    -0x10(%rbp),%eax
  4011b4:	3d 49 01 00 00       	cmp    $0x149,%eax
  4011b9:	74 5b                	je     401216 <phase_3+0x142>
  4011bb:	e8 69 0c 00 00       	callq  401e29 <explode_bomb>
  4011c0:	eb 54                	jmp    401216 <phase_3+0x142>
  4011c2:	c6 45 ff 75          	movb   $0x75,-0x1(%rbp)
  4011c6:	8b 45 f0             	mov    -0x10(%rbp),%eax
  4011c9:	3d ec 01 00 00       	cmp    $0x1ec,%eax
  4011ce:	74 49                	je     401219 <phase_3+0x145>
  4011d0:	e8 54 0c 00 00       	callq  401e29 <explode_bomb>
  4011d5:	eb 42                	jmp    401219 <phase_3+0x145>
  4011d7:	c6 45 ff 74          	movb   $0x74,-0x1(%rbp)
  4011db:	8b 45 f0             	mov    -0x10(%rbp),%eax
  4011de:	3d 51 02 00 00       	cmp    $0x251,%eax
  4011e3:	74 37                	je     40121c <phase_3+0x148>
  4011e5:	e8 3f 0c 00 00       	callq  401e29 <explode_bomb>
  4011ea:	eb 30                	jmp    40121c <phase_3+0x148>
  4011ec:	c6 45 ff 68          	movb   $0x68,-0x1(%rbp)
  4011f0:	8b 45 f0             	mov    -0x10(%rbp),%eax
  4011f3:	83 f8 50             	cmp    $0x50,%eax
  4011f6:	74 27                	je     40121f <phase_3+0x14b>
  4011f8:	e8 2c 0c 00 00       	callq  401e29 <explode_bomb>
  4011fd:	eb 20                	jmp    40121f <phase_3+0x14b>
  4011ff:	c6 45 ff 79          	movb   $0x79,-0x1(%rbp)
  401203:	e8 21 0c 00 00       	callq  401e29 <explode_bomb>
  401208:	eb 16                	jmp    401220 <phase_3+0x14c>
  40120a:	90                   	nop
  40120b:	eb 13                	jmp    401220 <phase_3+0x14c>
  40120d:	90                   	nop
  40120e:	eb 10                	jmp    401220 <phase_3+0x14c>
  401210:	90                   	nop
  401211:	eb 0d                	jmp    401220 <phase_3+0x14c>
  401213:	90                   	nop
  401214:	eb 0a                	jmp    401220 <phase_3+0x14c>
  401216:	90                   	nop
  401217:	eb 07                	jmp    401220 <phase_3+0x14c>
  401219:	90                   	nop
  40121a:	eb 04                	jmp    401220 <phase_3+0x14c>
  40121c:	90                   	nop
  40121d:	eb 01                	jmp    401220 <phase_3+0x14c>
  40121f:	90                   	nop
  401220:	0f b6 45 ef          	movzbl -0x11(%rbp),%eax
  401224:	38 45 ff             	cmp    %al,-0x1(%rbp)
  401227:	74 05                	je     40122e <phase_3+0x15a>
  401229:	e8 fb 0b 00 00       	callq  401e29 <explode_bomb>
  40122e:	90                   	nop
  40122f:	c9                   	leaveq 
  401230:	c3                   	retq   

0000000000401231 <secret_phase>:
  401231:	55                   	push   %rbp
  401232:	48 89 e5             	mov    %rsp,%rbp
  401235:	48 83 ec 20          	sub    $0x20,%rsp
  401239:	e8 10 04 00 00       	callq  40164e <read_line>
  40123e:	48 89 45 f0          	mov    %rax,-0x10(%rbp)
  401242:	48 8b 45 f0          	mov    -0x10(%rbp),%rax
  401246:	48 89 c7             	mov    %rax,%rdi
  401249:	e8 70 01 00 00       	callq  4013be <string_length>
  40124e:	89 45 ec             	mov    %eax,-0x14(%rbp)
  401251:	83 7d ec 06          	cmpl   $0x6,-0x14(%rbp)
  401255:	74 05                	je     40125c <secret_phase+0x2b>
  401257:	e8 cd 0b 00 00       	callq  401e29 <explode_bomb>
  40125c:	c7 45 fc 00 00 00 00 	movl   $0x0,-0x4(%rbp)
  401263:	eb 31                	jmp    401296 <secret_phase+0x65>
  401265:	8b 45 fc             	mov    -0x4(%rbp),%eax
  401268:	48 63 d0             	movslq %eax,%rdx
  40126b:	48 8b 45 f0          	mov    -0x10(%rbp),%rax
  40126f:	48 01 d0             	add    %rdx,%rax
  401272:	0f b6 00             	movzbl (%rax),%eax
  401275:	0f be c0             	movsbl %al,%eax
  401278:	83 e0 0f             	and    $0xf,%eax
  40127b:	48 63 d0             	movslq %eax,%rdx
  40127e:	48 8d 05 fb 22 20 00 	lea    0x2022fb(%rip),%rax        # 603580 <array.2938>
  401285:	0f b6 14 02          	movzbl (%rdx,%rax,1),%edx
  401289:	8b 45 fc             	mov    -0x4(%rbp),%eax
  40128c:	48 98                	cltq   
  40128e:	88 54 05 e5          	mov    %dl,-0x1b(%rbp,%rax,1)
  401292:	83 45 fc 01          	addl   $0x1,-0x4(%rbp)
  401296:	83 7d fc 05          	cmpl   $0x5,-0x4(%rbp)
  40129a:	7e c9                	jle    401265 <secret_phase+0x34>
  40129c:	c6 45 eb 00          	movb   $0x0,-0x15(%rbp)
  4012a0:	48 8d 45 e5          	lea    -0x1b(%rbp),%rax
  4012a4:	48 8d 35 59 0e 00 00 	lea    0xe59(%rip),%rsi        # 402104 <_IO_stdin_used+0x154>
  4012ab:	48 89 c7             	mov    %rax,%rdi
  4012ae:	e8 3d 01 00 00       	callq  4013f0 <strings_not_equal>
  4012b3:	85 c0                	test   %eax,%eax
  4012b5:	74 05                	je     4012bc <secret_phase+0x8b>
  4012b7:	e8 6d 0b 00 00       	callq  401e29 <explode_bomb>
  4012bc:	e8 a4 0b 00 00       	callq  401e65 <phase_defused>
  4012c1:	90                   	nop
  4012c2:	c9                   	leaveq 
  4012c3:	c3                   	retq   

00000000004012c4 <sig_handler>:
  4012c4:	55                   	push   %rbp
  4012c5:	48 89 e5             	mov    %rsp,%rbp
  4012c8:	48 83 ec 10          	sub    $0x10,%rsp
  4012cc:	89 7d fc             	mov    %edi,-0x4(%rbp)
  4012cf:	48 8d 3d 3a 0e 00 00 	lea    0xe3a(%rip),%rdi        # 402110 <_IO_stdin_used+0x160>
  4012d6:	e8 55 f9 ff ff       	callq  400c30 <puts@plt>
  4012db:	bf 03 00 00 00       	mov    $0x3,%edi
  4012e0:	e8 0b fb ff ff       	callq  400df0 <sleep@plt>
  4012e5:	48 8d 3d 5c 0e 00 00 	lea    0xe5c(%rip),%rdi        # 402148 <_IO_stdin_used+0x198>
  4012ec:	b8 00 00 00 00       	mov    $0x0,%eax
  4012f1:	e8 9a f9 ff ff       	callq  400c90 <printf@plt>
  4012f6:	48 8b 05 a3 22 20 00 	mov    0x2022a3(%rip),%rax        # 6035a0 <stdout@@GLIBC_2.2.5>
  4012fd:	48 89 c7             	mov    %rax,%rdi
  401300:	e8 3b fa ff ff       	callq  400d40 <fflush@plt>
  401305:	bf 01 00 00 00       	mov    $0x1,%edi
  40130a:	e8 e1 fa ff ff       	callq  400df0 <sleep@plt>
  40130f:	48 8d 3d 3a 0e 00 00 	lea    0xe3a(%rip),%rdi        # 402150 <_IO_stdin_used+0x1a0>
  401316:	e8 15 f9 ff ff       	callq  400c30 <puts@plt>
  40131b:	bf 10 00 00 00       	mov    $0x10,%edi
  401320:	e8 9b fa ff ff       	callq  400dc0 <exit@plt>

0000000000401325 <invalid_phase>:
  401325:	55                   	push   %rbp
  401326:	48 89 e5             	mov    %rsp,%rbp
  401329:	48 83 ec 10          	sub    $0x10,%rsp
  40132d:	48 89 7d f8          	mov    %rdi,-0x8(%rbp)
  401331:	48 8b 45 f8          	mov    -0x8(%rbp),%rax
  401335:	48 89 c6             	mov    %rax,%rsi
  401338:	48 8d 3d 19 0e 00 00 	lea    0xe19(%rip),%rdi        # 402158 <_IO_stdin_used+0x1a8>
  40133f:	b8 00 00 00 00       	mov    $0x0,%eax
  401344:	e8 47 f9 ff ff       	callq  400c90 <printf@plt>
  401349:	bf 08 00 00 00       	mov    $0x8,%edi
  40134e:	e8 6d fa ff ff       	callq  400dc0 <exit@plt>

0000000000401353 <read_six_numbers>:
  401353:	55                   	push   %rbp
  401354:	48 89 e5             	mov    %rsp,%rbp
  401357:	48 83 ec 20          	sub    $0x20,%rsp
  40135b:	48 89 7d e8          	mov    %rdi,-0x18(%rbp)
  40135f:	48 89 75 e0          	mov    %rsi,-0x20(%rbp)
  401363:	48 8b 45 e0          	mov    -0x20(%rbp),%rax
  401367:	48 8d 78 14          	lea    0x14(%rax),%rdi
  40136b:	48 8b 45 e0          	mov    -0x20(%rbp),%rax
  40136f:	48 8d 70 10          	lea    0x10(%rax),%rsi
  401373:	48 8b 45 e0          	mov    -0x20(%rbp),%rax
  401377:	4c 8d 48 0c          	lea    0xc(%rax),%r9
  40137b:	48 8b 45 e0          	mov    -0x20(%rbp),%rax
  40137f:	4c 8d 40 08          	lea    0x8(%rax),%r8
  401383:	48 8b 45 e0          	mov    -0x20(%rbp),%rax
  401387:	48 8d 48 04          	lea    0x4(%rax),%rcx
  40138b:	48 8b 55 e0          	mov    -0x20(%rbp),%rdx
  40138f:	48 8b 45 e8          	mov    -0x18(%rbp),%rax
  401393:	57                   	push   %rdi
  401394:	56                   	push   %rsi
  401395:	48 8d 35 cd 0d 00 00 	lea    0xdcd(%rip),%rsi        # 402169 <_IO_stdin_used+0x1b9>
  40139c:	48 89 c7             	mov    %rax,%rdi
  40139f:	b8 00 00 00 00       	mov    $0x0,%eax
  4013a4:	e8 a7 f9 ff ff       	callq  400d50 <__isoc99_sscanf@plt>
  4013a9:	48 83 c4 10          	add    $0x10,%rsp
  4013ad:	89 45 fc             	mov    %eax,-0x4(%rbp)
  4013b0:	83 7d fc 05          	cmpl   $0x5,-0x4(%rbp)
  4013b4:	7f 05                	jg     4013bb <read_six_numbers+0x68>
  4013b6:	e8 6e 0a 00 00       	callq  401e29 <explode_bomb>
  4013bb:	90                   	nop
  4013bc:	c9                   	leaveq 
  4013bd:	c3                   	retq   

00000000004013be <string_length>:
  4013be:	55                   	push   %rbp
  4013bf:	48 89 e5             	mov    %rsp,%rbp
  4013c2:	48 89 7d e8          	mov    %rdi,-0x18(%rbp)
  4013c6:	48 8b 45 e8          	mov    -0x18(%rbp),%rax
  4013ca:	48 89 45 f0          	mov    %rax,-0x10(%rbp)
  4013ce:	c7 45 fc 00 00 00 00 	movl   $0x0,-0x4(%rbp)
  4013d5:	eb 09                	jmp    4013e0 <string_length+0x22>
  4013d7:	48 83 45 f0 01       	addq   $0x1,-0x10(%rbp)
  4013dc:	83 45 fc 01          	addl   $0x1,-0x4(%rbp)
  4013e0:	48 8b 45 f0          	mov    -0x10(%rbp),%rax
  4013e4:	0f b6 00             	movzbl (%rax),%eax
  4013e7:	84 c0                	test   %al,%al
  4013e9:	75 ec                	jne    4013d7 <string_length+0x19>
  4013eb:	8b 45 fc             	mov    -0x4(%rbp),%eax
  4013ee:	5d                   	pop    %rbp
  4013ef:	c3                   	retq   

00000000004013f0 <strings_not_equal>:
  4013f0:	55                   	push   %rbp
  4013f1:	48 89 e5             	mov    %rsp,%rbp
  4013f4:	53                   	push   %rbx
  4013f5:	48 83 ec 20          	sub    $0x20,%rsp
  4013f9:	48 89 7d e0          	mov    %rdi,-0x20(%rbp)
  4013fd:	48 89 75 d8          	mov    %rsi,-0x28(%rbp)
  401401:	48 8b 45 e0          	mov    -0x20(%rbp),%rax
  401405:	48 89 c7             	mov    %rax,%rdi
  401408:	e8 b1 ff ff ff       	callq  4013be <string_length>
  40140d:	89 c3                	mov    %eax,%ebx
  40140f:	48 8b 45 d8          	mov    -0x28(%rbp),%rax
  401413:	48 89 c7             	mov    %rax,%rdi
  401416:	e8 a3 ff ff ff       	callq  4013be <string_length>
  40141b:	39 c3                	cmp    %eax,%ebx
  40141d:	74 07                	je     401426 <strings_not_equal+0x36>
  40141f:	b8 01 00 00 00       	mov    $0x1,%eax
  401424:	eb 45                	jmp    40146b <strings_not_equal+0x7b>
  401426:	48 8b 45 e0          	mov    -0x20(%rbp),%rax
  40142a:	48 89 45 f0          	mov    %rax,-0x10(%rbp)
  40142e:	48 8b 45 d8          	mov    -0x28(%rbp),%rax
  401432:	48 89 45 e8          	mov    %rax,-0x18(%rbp)
  401436:	eb 23                	jmp    40145b <strings_not_equal+0x6b>
  401438:	48 8b 45 f0          	mov    -0x10(%rbp),%rax
  40143c:	0f b6 10             	movzbl (%rax),%edx
  40143f:	48 8b 45 e8          	mov    -0x18(%rbp),%rax
  401443:	0f b6 00             	movzbl (%rax),%eax
  401446:	38 c2                	cmp    %al,%dl
  401448:	74 07                	je     401451 <strings_not_equal+0x61>
  40144a:	b8 01 00 00 00       	mov    $0x1,%eax
  40144f:	eb 1a                	jmp    40146b <strings_not_equal+0x7b>
  401451:	48 83 45 f0 01       	addq   $0x1,-0x10(%rbp)
  401456:	48 83 45 e8 01       	addq   $0x1,-0x18(%rbp)
  40145b:	48 8b 45 f0          	mov    -0x10(%rbp),%rax
  40145f:	0f b6 00             	movzbl (%rax),%eax
  401462:	84 c0                	test   %al,%al
  401464:	75 d2                	jne    401438 <strings_not_equal+0x48>
  401466:	b8 00 00 00 00       	mov    $0x0,%eax
  40146b:	48 83 c4 20          	add    $0x20,%rsp
  40146f:	5b                   	pop    %rbx
  401470:	5d                   	pop    %rbp
  401471:	c3                   	retq   

0000000000401472 <open_clientfd>:
  401472:	55                   	push   %rbp
  401473:	48 89 e5             	mov    %rsp,%rbp
  401476:	48 83 ec 30          	sub    $0x30,%rsp
  40147a:	48 89 7d d8          	mov    %rdi,-0x28(%rbp)
  40147e:	89 75 d4             	mov    %esi,-0x2c(%rbp)
  401481:	ba 00 00 00 00       	mov    $0x0,%edx
  401486:	be 01 00 00 00       	mov    $0x1,%esi
  40148b:	bf 02 00 00 00       	mov    $0x2,%edi
  401490:	e8 7b f9 ff ff       	callq  400e10 <socket@plt>
  401495:	89 45 fc             	mov    %eax,-0x4(%rbp)
  401498:	83 7d fc 00          	cmpl   $0x0,-0x4(%rbp)
  40149c:	79 16                	jns    4014b4 <open_clientfd+0x42>
  40149e:	48 8d 3d d6 0c 00 00 	lea    0xcd6(%rip),%rdi        # 40217b <_IO_stdin_used+0x1cb>
  4014a5:	e8 86 f7 ff ff       	callq  400c30 <puts@plt>
  4014aa:	bf 08 00 00 00       	mov    $0x8,%edi
  4014af:	e8 0c f9 ff ff       	callq  400dc0 <exit@plt>
  4014b4:	48 8b 45 d8          	mov    -0x28(%rbp),%rax
  4014b8:	48 89 c7             	mov    %rax,%rdi
  4014bb:	e8 50 f8 ff ff       	callq  400d10 <gethostbyname@plt>
  4014c0:	48 89 45 f0          	mov    %rax,-0x10(%rbp)
  4014c4:	48 83 7d f0 00       	cmpq   $0x0,-0x10(%rbp)
  4014c9:	75 16                	jne    4014e1 <open_clientfd+0x6f>
  4014cb:	48 8d 3d b7 0c 00 00 	lea    0xcb7(%rip),%rdi        # 402189 <_IO_stdin_used+0x1d9>
  4014d2:	e8 59 f7 ff ff       	callq  400c30 <puts@plt>
  4014d7:	bf 08 00 00 00       	mov    $0x8,%edi
  4014dc:	e8 df f8 ff ff       	callq  400dc0 <exit@plt>
  4014e1:	48 8d 45 e0          	lea    -0x20(%rbp),%rax
  4014e5:	be 10 00 00 00       	mov    $0x10,%esi
  4014ea:	48 89 c7             	mov    %rax,%rdi
  4014ed:	e8 9e f8 ff ff       	callq  400d90 <bzero@plt>
  4014f2:	66 c7 45 e0 02 00    	movw   $0x2,-0x20(%rbp)
  4014f8:	48 8b 45 f0          	mov    -0x10(%rbp),%rax
  4014fc:	8b 40 14             	mov    0x14(%rax),%eax
  4014ff:	48 63 d0             	movslq %eax,%rdx
  401502:	48 8b 45 f0          	mov    -0x10(%rbp),%rax
  401506:	48 8b 40 18          	mov    0x18(%rax),%rax
  40150a:	48 8b 00             	mov    (%rax),%rax
  40150d:	48 8d 4d e0          	lea    -0x20(%rbp),%rcx
  401511:	48 83 c1 04          	add    $0x4,%rcx
  401515:	48 89 ce             	mov    %rcx,%rsi
  401518:	48 89 c7             	mov    %rax,%rdi
  40151b:	e8 40 f8 ff ff       	callq  400d60 <bcopy@plt>
  401520:	8b 45 d4             	mov    -0x2c(%rbp),%eax
  401523:	0f b7 c0             	movzwl %ax,%eax
  401526:	89 c7                	mov    %eax,%edi
  401528:	e8 53 f7 ff ff       	callq  400c80 <htons@plt>
  40152d:	66 89 45 e2          	mov    %ax,-0x1e(%rbp)
  401531:	48 8d 4d e0          	lea    -0x20(%rbp),%rcx
  401535:	8b 45 fc             	mov    -0x4(%rbp),%eax
  401538:	ba 10 00 00 00       	mov    $0x10,%edx
  40153d:	48 89 ce             	mov    %rcx,%rsi
  401540:	89 c7                	mov    %eax,%edi
  401542:	e8 89 f8 ff ff       	callq  400dd0 <connect@plt>
  401547:	85 c0                	test   %eax,%eax
  401549:	79 16                	jns    401561 <open_clientfd+0xef>
  40154b:	48 8d 3d 45 0c 00 00 	lea    0xc45(%rip),%rdi        # 402197 <_IO_stdin_used+0x1e7>
  401552:	e8 d9 f6 ff ff       	callq  400c30 <puts@plt>
  401557:	bf 08 00 00 00       	mov    $0x8,%edi
  40155c:	e8 5f f8 ff ff       	callq  400dc0 <exit@plt>
  401561:	8b 45 fc             	mov    -0x4(%rbp),%eax
  401564:	c9                   	leaveq 
  401565:	c3                   	retq   

0000000000401566 <initialize_bomb>:
  401566:	55                   	push   %rbp
  401567:	48 89 e5             	mov    %rsp,%rbp
  40156a:	48 8d 35 53 fd ff ff 	lea    -0x2ad(%rip),%rsi        # 4012c4 <sig_handler>
  401571:	bf 02 00 00 00       	mov    $0x2,%edi
  401576:	e8 85 f7 ff ff       	callq  400d00 <signal@plt>
  40157b:	be 50 00 00 00       	mov    $0x50,%esi
  401580:	48 8d 3d 1e 0c 00 00 	lea    0xc1e(%rip),%rdi        # 4021a5 <_IO_stdin_used+0x1f5>
  401587:	e8 e6 fe ff ff       	callq  401472 <open_clientfd>
  40158c:	89 c7                	mov    %eax,%edi
  40158e:	e8 2d f7 ff ff       	callq  400cc0 <close@plt>
  401593:	90                   	nop
  401594:	5d                   	pop    %rbp
  401595:	c3                   	retq   

0000000000401596 <blank_line>:
  401596:	55                   	push   %rbp
  401597:	48 89 e5             	mov    %rsp,%rbp
  40159a:	48 83 ec 10          	sub    $0x10,%rsp
  40159e:	48 89 7d f8          	mov    %rdi,-0x8(%rbp)
  4015a2:	eb 37                	jmp    4015db <blank_line+0x45>
  4015a4:	e8 57 f8 ff ff       	callq  400e00 <__ctype_b_loc@plt>
  4015a9:	48 8b 08             	mov    (%rax),%rcx
  4015ac:	48 8b 45 f8          	mov    -0x8(%rbp),%rax
  4015b0:	48 8d 50 01          	lea    0x1(%rax),%rdx
  4015b4:	48 89 55 f8          	mov    %rdx,-0x8(%rbp)
  4015b8:	0f b6 00             	movzbl (%rax),%eax
  4015bb:	48 0f be c0          	movsbq %al,%rax
  4015bf:	48 01 c0             	add    %rax,%rax
  4015c2:	48 01 c8             	add    %rcx,%rax
  4015c5:	0f b7 00             	movzwl (%rax),%eax
  4015c8:	0f b7 c0             	movzwl %ax,%eax
  4015cb:	25 00 20 00 00       	and    $0x2000,%eax
  4015d0:	85 c0                	test   %eax,%eax
  4015d2:	75 07                	jne    4015db <blank_line+0x45>
  4015d4:	b8 00 00 00 00       	mov    $0x0,%eax
  4015d9:	eb 10                	jmp    4015eb <blank_line+0x55>
  4015db:	48 8b 45 f8          	mov    -0x8(%rbp),%rax
  4015df:	0f b6 00             	movzbl (%rax),%eax
  4015e2:	84 c0                	test   %al,%al
  4015e4:	75 be                	jne    4015a4 <blank_line+0xe>
  4015e6:	b8 01 00 00 00       	mov    $0x1,%eax
  4015eb:	c9                   	leaveq 
  4015ec:	c3                   	retq   

00000000004015ed <skip>:
  4015ed:	55                   	push   %rbp
  4015ee:	48 89 e5             	mov    %rsp,%rbp
  4015f1:	48 83 ec 10          	sub    $0x10,%rsp
  4015f5:	48 8b 0d c4 1f 20 00 	mov    0x201fc4(%rip),%rcx        # 6035c0 <infile>
  4015fc:	8b 05 ba 1f 20 00    	mov    0x201fba(%rip),%eax        # 6035bc <num_input_strings>
  401602:	48 63 d0             	movslq %eax,%rdx
  401605:	48 89 d0             	mov    %rdx,%rax
  401608:	48 c1 e0 02          	shl    $0x2,%rax
  40160c:	48 01 d0             	add    %rdx,%rax
  40160f:	48 c1 e0 04          	shl    $0x4,%rax
  401613:	48 8d 15 c6 1f 20 00 	lea    0x201fc6(%rip),%rdx        # 6035e0 <input_strings>
  40161a:	48 01 d0             	add    %rdx,%rax
  40161d:	48 89 ca             	mov    %rcx,%rdx
  401620:	be 50 00 00 00       	mov    $0x50,%esi
  401625:	48 89 c7             	mov    %rax,%rdi
  401628:	e8 b3 f6 ff ff       	callq  400ce0 <fgets@plt>
  40162d:	48 89 45 f8          	mov    %rax,-0x8(%rbp)
  401631:	48 83 7d f8 00       	cmpq   $0x0,-0x8(%rbp)
  401636:	74 10                	je     401648 <skip+0x5b>
  401638:	48 8b 45 f8          	mov    -0x8(%rbp),%rax
  40163c:	48 89 c7             	mov    %rax,%rdi
  40163f:	e8 52 ff ff ff       	callq  401596 <blank_line>
  401644:	85 c0                	test   %eax,%eax
  401646:	75 ad                	jne    4015f5 <skip+0x8>
  401648:	48 8b 45 f8          	mov    -0x8(%rbp),%rax
  40164c:	c9                   	leaveq 
  40164d:	c3                   	retq   

000000000040164e <read_line>:
  40164e:	55                   	push   %rbp
  40164f:	48 89 e5             	mov    %rsp,%rbp
  401652:	48 83 ec 10          	sub    $0x10,%rsp
  401656:	b8 00 00 00 00       	mov    $0x0,%eax
  40165b:	e8 8d ff ff ff       	callq  4015ed <skip>
  401660:	48 89 45 f8          	mov    %rax,-0x8(%rbp)
  401664:	48 83 7d f8 00       	cmpq   $0x0,-0x8(%rbp)
  401669:	75 75                	jne    4016e0 <read_line+0x92>
  40166b:	48 8b 15 4e 1f 20 00 	mov    0x201f4e(%rip),%rdx        # 6035c0 <infile>
  401672:	48 8b 05 37 1f 20 00 	mov    0x201f37(%rip),%rax        # 6035b0 <stdin@@GLIBC_2.2.5>
  401679:	48 39 c2             	cmp    %rax,%rdx
  40167c:	75 13                	jne    401691 <read_line+0x43>
  40167e:	48 8d 3d 2e 0b 00 00 	lea    0xb2e(%rip),%rdi        # 4021b3 <_IO_stdin_used+0x203>
  401685:	e8 a6 f5 ff ff       	callq  400c30 <puts@plt>
  40168a:	e8 9a 07 00 00       	callq  401e29 <explode_bomb>
  40168f:	eb 4f                	jmp    4016e0 <read_line+0x92>
  401691:	48 8d 3d 39 0b 00 00 	lea    0xb39(%rip),%rdi        # 4021d1 <_IO_stdin_used+0x221>
  401698:	e8 63 f5 ff ff       	callq  400c00 <getenv@plt>
  40169d:	48 85 c0             	test   %rax,%rax
  4016a0:	74 0a                	je     4016ac <read_line+0x5e>
  4016a2:	bf 00 00 00 00       	mov    $0x0,%edi
  4016a7:	e8 14 f7 ff ff       	callq  400dc0 <exit@plt>
  4016ac:	48 8b 05 fd 1e 20 00 	mov    0x201efd(%rip),%rax        # 6035b0 <stdin@@GLIBC_2.2.5>
  4016b3:	48 89 05 06 1f 20 00 	mov    %rax,0x201f06(%rip)        # 6035c0 <infile>
  4016ba:	b8 00 00 00 00       	mov    $0x0,%eax
  4016bf:	e8 29 ff ff ff       	callq  4015ed <skip>
  4016c4:	48 89 45 f8          	mov    %rax,-0x8(%rbp)
  4016c8:	48 83 7d f8 00       	cmpq   $0x0,-0x8(%rbp)
  4016cd:	75 11                	jne    4016e0 <read_line+0x92>
  4016cf:	48 8d 3d dd 0a 00 00 	lea    0xadd(%rip),%rdi        # 4021b3 <_IO_stdin_used+0x203>
  4016d6:	e8 55 f5 ff ff       	callq  400c30 <puts@plt>
  4016db:	e8 49 07 00 00       	callq  401e29 <explode_bomb>
  4016e0:	8b 05 d6 1e 20 00    	mov    0x201ed6(%rip),%eax        # 6035bc <num_input_strings>
  4016e6:	48 63 d0             	movslq %eax,%rdx
  4016e9:	48 89 d0             	mov    %rdx,%rax
  4016ec:	48 c1 e0 02          	shl    $0x2,%rax
  4016f0:	48 01 d0             	add    %rdx,%rax
  4016f3:	48 c1 e0 04          	shl    $0x4,%rax
  4016f7:	48 8d 15 e2 1e 20 00 	lea    0x201ee2(%rip),%rdx        # 6035e0 <input_strings>
  4016fe:	48 01 d0             	add    %rdx,%rax
  401701:	48 89 c7             	mov    %rax,%rdi
  401704:	e8 57 f5 ff ff       	callq  400c60 <strlen@plt>
  401709:	89 45 f4             	mov    %eax,-0xc(%rbp)
  40170c:	83 7d f4 4f          	cmpl   $0x4f,-0xc(%rbp)
  401710:	75 11                	jne    401723 <read_line+0xd5>
  401712:	48 8d 3d c3 0a 00 00 	lea    0xac3(%rip),%rdi        # 4021dc <_IO_stdin_used+0x22c>
  401719:	e8 12 f5 ff ff       	callq  400c30 <puts@plt>
  40171e:	e8 06 07 00 00       	callq  401e29 <explode_bomb>
  401723:	8b 05 93 1e 20 00    	mov    0x201e93(%rip),%eax        # 6035bc <num_input_strings>
  401729:	8b 55 f4             	mov    -0xc(%rbp),%edx
  40172c:	83 ea 01             	sub    $0x1,%edx
  40172f:	48 63 ca             	movslq %edx,%rcx
  401732:	48 63 d0             	movslq %eax,%rdx
  401735:	48 89 d0             	mov    %rdx,%rax
  401738:	48 c1 e0 02          	shl    $0x2,%rax
  40173c:	48 01 d0             	add    %rdx,%rax
  40173f:	48 c1 e0 04          	shl    $0x4,%rax
  401743:	48 8d 14 08          	lea    (%rax,%rcx,1),%rdx
  401747:	48 8d 05 92 1e 20 00 	lea    0x201e92(%rip),%rax        # 6035e0 <input_strings>
  40174e:	48 01 d0             	add    %rdx,%rax
  401751:	c6 00 00             	movb   $0x0,(%rax)
  401754:	8b 05 62 1e 20 00    	mov    0x201e62(%rip),%eax        # 6035bc <num_input_strings>
  40175a:	8d 50 01             	lea    0x1(%rax),%edx
  40175d:	89 15 59 1e 20 00    	mov    %edx,0x201e59(%rip)        # 6035bc <num_input_strings>
  401763:	48 63 d0             	movslq %eax,%rdx
  401766:	48 89 d0             	mov    %rdx,%rax
  401769:	48 c1 e0 02          	shl    $0x2,%rax
  40176d:	48 01 d0             	add    %rdx,%rax
  401770:	48 c1 e0 04          	shl    $0x4,%rax
  401774:	48 8d 15 65 1e 20 00 	lea    0x201e65(%rip),%rdx        # 6035e0 <input_strings>
  40177b:	48 01 d0             	add    %rdx,%rax
  40177e:	c9                   	leaveq 
  40177f:	c3                   	retq   

0000000000401780 <writen>:
  401780:	55                   	push   %rbp
  401781:	48 89 e5             	mov    %rsp,%rbp
  401784:	48 83 ec 40          	sub    $0x40,%rsp
  401788:	89 7d dc             	mov    %edi,-0x24(%rbp)
  40178b:	48 89 75 d0          	mov    %rsi,-0x30(%rbp)
  40178f:	48 89 55 c8          	mov    %rdx,-0x38(%rbp)
  401793:	48 8b 45 d0          	mov    -0x30(%rbp),%rax
  401797:	48 89 45 e8          	mov    %rax,-0x18(%rbp)
  40179b:	48 8b 45 c8          	mov    -0x38(%rbp),%rax
  40179f:	48 89 45 f8          	mov    %rax,-0x8(%rbp)
  4017a3:	eb 4f                	jmp    4017f4 <writen+0x74>
  4017a5:	48 8b 55 f8          	mov    -0x8(%rbp),%rdx
  4017a9:	48 8b 4d e8          	mov    -0x18(%rbp),%rcx
  4017ad:	8b 45 dc             	mov    -0x24(%rbp),%eax
  4017b0:	48 89 ce             	mov    %rcx,%rsi
  4017b3:	89 c7                	mov    %eax,%edi
  4017b5:	e8 86 f4 ff ff       	callq  400c40 <write@plt>
  4017ba:	48 89 45 f0          	mov    %rax,-0x10(%rbp)
  4017be:	48 83 7d f0 00       	cmpq   $0x0,-0x10(%rbp)
  4017c3:	7f 1f                	jg     4017e4 <writen+0x64>
  4017c5:	e8 46 f4 ff ff       	callq  400c10 <__errno_location@plt>
  4017ca:	8b 00                	mov    (%rax),%eax
  4017cc:	83 f8 04             	cmp    $0x4,%eax
  4017cf:	75 0a                	jne    4017db <writen+0x5b>
  4017d1:	48 c7 45 f0 00 00 00 	movq   $0x0,-0x10(%rbp)
  4017d8:	00 
  4017d9:	eb 09                	jmp    4017e4 <writen+0x64>
  4017db:	48 c7 c0 ff ff ff ff 	mov    $0xffffffffffffffff,%rax
  4017e2:	eb 1b                	jmp    4017ff <writen+0x7f>
  4017e4:	48 8b 45 f0          	mov    -0x10(%rbp),%rax
  4017e8:	48 29 45 f8          	sub    %rax,-0x8(%rbp)
  4017ec:	48 8b 45 f0          	mov    -0x10(%rbp),%rax
  4017f0:	48 01 45 e8          	add    %rax,-0x18(%rbp)
  4017f4:	48 83 7d f8 00       	cmpq   $0x0,-0x8(%rbp)
  4017f9:	75 aa                	jne    4017a5 <writen+0x25>
  4017fb:	48 8b 45 c8          	mov    -0x38(%rbp),%rax
  4017ff:	c9                   	leaveq 
  401800:	c3                   	retq   

0000000000401801 <send_msg>:
  401801:	55                   	push   %rbp
  401802:	48 89 e5             	mov    %rsp,%rbp
  401805:	53                   	push   %rbx
  401806:	48 81 ec 88 24 00 00 	sub    $0x2488,%rsp
  40180d:	89 bd 7c db ff ff    	mov    %edi,-0x2484(%rbp)
  401813:	c7 45 e8 00 00 00 00 	movl   $0x0,-0x18(%rbp)
  40181a:	ba 00 00 00 00       	mov    $0x0,%edx
  40181f:	be 01 00 00 00       	mov    $0x1,%esi
  401824:	bf 02 00 00 00       	mov    $0x2,%edi
  401829:	e8 e2 f5 ff ff       	callq  400e10 <socket@plt>
  40182e:	89 45 e8             	mov    %eax,-0x18(%rbp)
  401831:	83 7d e8 00          	cmpl   $0x0,-0x18(%rbp)
  401835:	79 3c                	jns    401873 <send_msg+0x72>
  401837:	48 8b 05 62 1d 20 00 	mov    0x201d62(%rip),%rax        # 6035a0 <stdout@@GLIBC_2.2.5>
  40183e:	48 8d 15 b2 09 00 00 	lea    0x9b2(%rip),%rdx        # 4021f7 <_IO_stdin_used+0x247>
  401845:	48 8d 35 b8 09 00 00 	lea    0x9b8(%rip),%rsi        # 402204 <_IO_stdin_used+0x254>
  40184c:	48 89 c7             	mov    %rax,%rdi
  40184f:	b8 00 00 00 00       	mov    $0x0,%eax
  401854:	e8 c7 f4 ff ff       	callq  400d20 <fprintf@plt>
  401859:	83 7d e8 00          	cmpl   $0x0,-0x18(%rbp)
  40185d:	74 0a                	je     401869 <send_msg+0x68>
  40185f:	8b 45 e8             	mov    -0x18(%rbp),%eax
  401862:	89 c7                	mov    %eax,%edi
  401864:	e8 57 f4 ff ff       	callq  400cc0 <close@plt>
  401869:	bf 01 00 00 00       	mov    $0x1,%edi
  40186e:	e8 4d f5 ff ff       	callq  400dc0 <exit@plt>
  401873:	48 8d 45 d0          	lea    -0x30(%rbp),%rax
  401877:	be 10 00 00 00       	mov    $0x10,%esi
  40187c:	48 89 c7             	mov    %rax,%rdi
  40187f:	e8 0c f5 ff ff       	callq  400d90 <bzero@plt>
  401884:	66 c7 45 d0 02 00    	movw   $0x2,-0x30(%rbp)
  40188a:	bf 62 cc 00 00       	mov    $0xcc62,%edi
  40188f:	e8 ec f3 ff ff       	callq  400c80 <htons@plt>
  401894:	66 89 45 d2          	mov    %ax,-0x2e(%rbp)
  401898:	48 8d 45 d0          	lea    -0x30(%rbp),%rax
  40189c:	48 83 c0 04          	add    $0x4,%rax
  4018a0:	48 89 c2             	mov    %rax,%rdx
  4018a3:	48 8d 35 fb 08 00 00 	lea    0x8fb(%rip),%rsi        # 4021a5 <_IO_stdin_used+0x1f5>
  4018aa:	bf 02 00 00 00       	mov    $0x2,%edi
  4018af:	b8 00 00 00 00       	mov    $0x0,%eax
  4018b4:	e8 77 f4 ff ff       	callq  400d30 <inet_pton@plt>
  4018b9:	85 c0                	test   %eax,%eax
  4018bb:	79 3c                	jns    4018f9 <send_msg+0xf8>
  4018bd:	48 8b 05 dc 1c 20 00 	mov    0x201cdc(%rip),%rax        # 6035a0 <stdout@@GLIBC_2.2.5>
  4018c4:	48 8d 15 3d 09 00 00 	lea    0x93d(%rip),%rdx        # 402208 <_IO_stdin_used+0x258>
  4018cb:	48 8d 35 32 09 00 00 	lea    0x932(%rip),%rsi        # 402204 <_IO_stdin_used+0x254>
  4018d2:	48 89 c7             	mov    %rax,%rdi
  4018d5:	b8 00 00 00 00       	mov    $0x0,%eax
  4018da:	e8 41 f4 ff ff       	callq  400d20 <fprintf@plt>
  4018df:	83 7d e8 00          	cmpl   $0x0,-0x18(%rbp)
  4018e3:	74 0a                	je     4018ef <send_msg+0xee>
  4018e5:	8b 45 e8             	mov    -0x18(%rbp),%eax
  4018e8:	89 c7                	mov    %eax,%edi
  4018ea:	e8 d1 f3 ff ff       	callq  400cc0 <close@plt>
  4018ef:	bf 01 00 00 00       	mov    $0x1,%edi
  4018f4:	e8 c7 f4 ff ff       	callq  400dc0 <exit@plt>
  4018f9:	48 8d 4d d0          	lea    -0x30(%rbp),%rcx
  4018fd:	8b 45 e8             	mov    -0x18(%rbp),%eax
  401900:	ba 10 00 00 00       	mov    $0x10,%edx
  401905:	48 89 ce             	mov    %rcx,%rsi
  401908:	89 c7                	mov    %eax,%edi
  40190a:	e8 c1 f4 ff ff       	callq  400dd0 <connect@plt>
  40190f:	85 c0                	test   %eax,%eax
  401911:	79 3c                	jns    40194f <send_msg+0x14e>
  401913:	48 8b 05 86 1c 20 00 	mov    0x201c86(%rip),%rax        # 6035a0 <stdout@@GLIBC_2.2.5>
  40191a:	48 8d 15 ed 08 00 00 	lea    0x8ed(%rip),%rdx        # 40220e <_IO_stdin_used+0x25e>
  401921:	48 8d 35 dc 08 00 00 	lea    0x8dc(%rip),%rsi        # 402204 <_IO_stdin_used+0x254>
  401928:	48 89 c7             	mov    %rax,%rdi
  40192b:	b8 00 00 00 00       	mov    $0x0,%eax
  401930:	e8 eb f3 ff ff       	callq  400d20 <fprintf@plt>
  401935:	83 7d e8 00          	cmpl   $0x0,-0x18(%rbp)
  401939:	74 0a                	je     401945 <send_msg+0x144>
  40193b:	8b 45 e8             	mov    -0x18(%rbp),%eax
  40193e:	89 c7                	mov    %eax,%edi
  401940:	e8 7b f3 ff ff       	callq  400cc0 <close@plt>
  401945:	bf 01 00 00 00       	mov    $0x1,%edi
  40194a:	e8 71 f4 ff ff       	callq  400dc0 <exit@plt>
  40194f:	48 8d 85 d0 db ff ff 	lea    -0x2430(%rbp),%rax
  401956:	48 bb 53 75 62 6a 65 	movabs $0x3a7463656a627553,%rbx
  40195d:	63 74 3a 
  401960:	48 89 18             	mov    %rbx,(%rax)
  401963:	48 bb 20 42 6f 6d 62 	movabs $0x6f6e20626d6f4220,%rbx
  40196a:	20 6e 6f 
  40196d:	48 89 58 08          	mov    %rbx,0x8(%rax)
  401971:	48 bb 74 69 66 69 63 	movabs $0x6974616369666974,%rbx
  401978:	61 74 69 
  40197b:	48 89 58 10          	mov    %rbx,0x10(%rax)
  40197f:	c7 40 18 6f 6e 0a 00 	movl   $0xa6e6f,0x18(%rax)
  401986:	48 8d 95 d0 db ff ff 	lea    -0x2430(%rbp),%rdx
  40198d:	48 8d 85 d0 df ff ff 	lea    -0x2030(%rbp),%rax
  401994:	48 89 d6             	mov    %rdx,%rsi
  401997:	48 89 c7             	mov    %rax,%rdi
  40199a:	e8 01 f4 ff ff       	callq  400da0 <strcat@plt>
  40199f:	48 8d 85 d0 db ff ff 	lea    -0x2430(%rbp),%rax
  4019a6:	66 c7 00 0a 00       	movw   $0xa,(%rax)
  4019ab:	48 8d 95 d0 db ff ff 	lea    -0x2430(%rbp),%rdx
  4019b2:	48 8d 85 d0 df ff ff 	lea    -0x2030(%rbp),%rax
  4019b9:	48 89 d6             	mov    %rdx,%rsi
  4019bc:	48 89 c7             	mov    %rax,%rdi
  4019bf:	e8 dc f3 ff ff       	callq  400da0 <strcat@plt>
  4019c4:	bf 00 00 00 00       	mov    $0x0,%edi
  4019c9:	e8 a2 f3 ff ff       	callq  400d70 <cuserid@plt>
  4019ce:	48 89 45 e0          	mov    %rax,-0x20(%rbp)
  4019d2:	48 83 7d e0 00       	cmpq   $0x0,-0x20(%rbp)
  4019d7:	75 19                	jne    4019f2 <send_msg+0x1f1>
  4019d9:	48 8d 85 80 db ff ff 	lea    -0x2480(%rbp),%rax
  4019e0:	c7 00 6e 6f 62 6f    	movl   $0x6f626f6e,(%rax)
  4019e6:	66 c7 40 04 64 79    	movw   $0x7964,0x4(%rax)
  4019ec:	c6 40 06 00          	movb   $0x0,0x6(%rax)
  4019f0:	eb 16                	jmp    401a08 <send_msg+0x207>
  4019f2:	48 8b 55 e0          	mov    -0x20(%rbp),%rdx
  4019f6:	48 8d 85 80 db ff ff 	lea    -0x2480(%rbp),%rax
  4019fd:	48 89 d6             	mov    %rdx,%rsi
  401a00:	48 89 c7             	mov    %rax,%rdi
  401a03:	e8 18 f2 ff ff       	callq  400c20 <strcpy@plt>
  401a08:	8b 0d ae 1b 20 00    	mov    0x201bae(%rip),%ecx        # 6035bc <num_input_strings>
  401a0e:	83 bd 7c db ff ff 00 	cmpl   $0x0,-0x2484(%rbp)
  401a15:	74 09                	je     401a20 <send_msg+0x21f>
  401a17:	48 8d 05 fe 07 00 00 	lea    0x7fe(%rip),%rax        # 40221c <_IO_stdin_used+0x26c>
  401a1e:	eb 07                	jmp    401a27 <send_msg+0x226>
  401a20:	48 8d 05 fd 07 00 00 	lea    0x7fd(%rip),%rax        # 402224 <_IO_stdin_used+0x274>
  401a27:	8b 15 33 17 20 00    	mov    0x201733(%rip),%edx        # 603160 <bomb_id>
  401a2d:	48 8d b5 80 db ff ff 	lea    -0x2480(%rbp),%rsi
  401a34:	48 8d bd d0 db ff ff 	lea    -0x2430(%rbp),%rdi
  401a3b:	48 83 ec 08          	sub    $0x8,%rsp
  401a3f:	51                   	push   %rcx
  401a40:	49 89 c1             	mov    %rax,%r9
  401a43:	49 89 f0             	mov    %rsi,%r8
  401a46:	89 d1                	mov    %edx,%ecx
  401a48:	48 8d 15 31 17 20 00 	lea    0x201731(%rip),%rdx        # 603180 <lab_id>
  401a4f:	48 8d 35 d7 07 00 00 	lea    0x7d7(%rip),%rsi        # 40222d <_IO_stdin_used+0x27d>
  401a56:	b8 00 00 00 00       	mov    $0x0,%eax
  401a5b:	e8 50 f3 ff ff       	callq  400db0 <sprintf@plt>
  401a60:	48 83 c4 10          	add    $0x10,%rsp
  401a64:	48 8d 95 d0 db ff ff 	lea    -0x2430(%rbp),%rdx
  401a6b:	48 8d 85 d0 df ff ff 	lea    -0x2030(%rbp),%rax
  401a72:	48 89 d6             	mov    %rdx,%rsi
  401a75:	48 89 c7             	mov    %rax,%rdi
  401a78:	e8 23 f3 ff ff       	callq  400da0 <strcat@plt>
  401a7d:	c7 45 ec 00 00 00 00 	movl   $0x0,-0x14(%rbp)
  401a84:	e9 82 00 00 00       	jmpq   401b0b <send_msg+0x30a>
  401a89:	8b 45 ec             	mov    -0x14(%rbp),%eax
  401a8c:	48 63 d0             	movslq %eax,%rdx
  401a8f:	48 89 d0             	mov    %rdx,%rax
  401a92:	48 c1 e0 02          	shl    $0x2,%rax
  401a96:	48 01 d0             	add    %rdx,%rax
  401a99:	48 c1 e0 04          	shl    $0x4,%rax
  401a9d:	48 8d 15 3c 1b 20 00 	lea    0x201b3c(%rip),%rdx        # 6035e0 <input_strings>
  401aa4:	48 8d 34 10          	lea    (%rax,%rdx,1),%rsi
  401aa8:	8b 45 ec             	mov    -0x14(%rbp),%eax
  401aab:	8d 78 01             	lea    0x1(%rax),%edi
  401aae:	8b 15 ac 16 20 00    	mov    0x2016ac(%rip),%edx        # 603160 <bomb_id>
  401ab4:	48 8d 8d 80 db ff ff 	lea    -0x2480(%rbp),%rcx
  401abb:	48 8d 85 d0 db ff ff 	lea    -0x2430(%rbp),%rax
  401ac2:	48 83 ec 08          	sub    $0x8,%rsp
  401ac6:	56                   	push   %rsi
  401ac7:	41 89 f9             	mov    %edi,%r9d
  401aca:	49 89 c8             	mov    %rcx,%r8
  401acd:	89 d1                	mov    %edx,%ecx
  401acf:	48 8d 15 aa 16 20 00 	lea    0x2016aa(%rip),%rdx        # 603180 <lab_id>
  401ad6:	48 8d 35 6c 07 00 00 	lea    0x76c(%rip),%rsi        # 402249 <_IO_stdin_used+0x299>
  401add:	48 89 c7             	mov    %rax,%rdi
  401ae0:	b8 00 00 00 00       	mov    $0x0,%eax
  401ae5:	e8 c6 f2 ff ff       	callq  400db0 <sprintf@plt>
  401aea:	48 83 c4 10          	add    $0x10,%rsp
  401aee:	48 8d 95 d0 db ff ff 	lea    -0x2430(%rbp),%rdx
  401af5:	48 8d 85 d0 df ff ff 	lea    -0x2030(%rbp),%rax
  401afc:	48 89 d6             	mov    %rdx,%rsi
  401aff:	48 89 c7             	mov    %rax,%rdi
  401b02:	e8 99 f2 ff ff       	callq  400da0 <strcat@plt>
  401b07:	83 45 ec 01          	addl   $0x1,-0x14(%rbp)
  401b0b:	8b 05 ab 1a 20 00    	mov    0x201aab(%rip),%eax        # 6035bc <num_input_strings>
  401b11:	39 45 ec             	cmp    %eax,-0x14(%rbp)
  401b14:	0f 8c 6f ff ff ff    	jl     401a89 <send_msg+0x288>
  401b1a:	48 8d 85 d0 df ff ff 	lea    -0x2030(%rbp),%rax
  401b21:	48 89 c7             	mov    %rax,%rdi
  401b24:	e8 37 f1 ff ff       	callq  400c60 <strlen@plt>
  401b29:	48 89 c2             	mov    %rax,%rdx
  401b2c:	48 8d 8d d0 df ff ff 	lea    -0x2030(%rbp),%rcx
  401b33:	8b 45 e8             	mov    -0x18(%rbp),%eax
  401b36:	48 89 ce             	mov    %rcx,%rsi
  401b39:	89 c7                	mov    %eax,%edi
  401b3b:	e8 40 fc ff ff       	callq  401780 <writen>
  401b40:	48 89 c3             	mov    %rax,%rbx
  401b43:	48 8d 85 d0 df ff ff 	lea    -0x2030(%rbp),%rax
  401b4a:	48 89 c7             	mov    %rax,%rdi
  401b4d:	e8 0e f1 ff ff       	callq  400c60 <strlen@plt>
  401b52:	48 39 c3             	cmp    %rax,%rbx
  401b55:	73 3c                	jae    401b93 <send_msg+0x392>
  401b57:	48 8b 05 42 1a 20 00 	mov    0x201a42(%rip),%rax        # 6035a0 <stdout@@GLIBC_2.2.5>
  401b5e:	48 8d 15 00 07 00 00 	lea    0x700(%rip),%rdx        # 402265 <_IO_stdin_used+0x2b5>
  401b65:	48 8d 35 98 06 00 00 	lea    0x698(%rip),%rsi        # 402204 <_IO_stdin_used+0x254>
  401b6c:	48 89 c7             	mov    %rax,%rdi
  401b6f:	b8 00 00 00 00       	mov    $0x0,%eax
  401b74:	e8 a7 f1 ff ff       	callq  400d20 <fprintf@plt>
  401b79:	83 7d e8 00          	cmpl   $0x0,-0x18(%rbp)
  401b7d:	74 0a                	je     401b89 <send_msg+0x388>
  401b7f:	8b 45 e8             	mov    -0x18(%rbp),%eax
  401b82:	89 c7                	mov    %eax,%edi
  401b84:	e8 37 f1 ff ff       	callq  400cc0 <close@plt>
  401b89:	bf 01 00 00 00       	mov    $0x1,%edi
  401b8e:	e8 2d f2 ff ff       	callq  400dc0 <exit@plt>
  401b93:	8b 45 e8             	mov    -0x18(%rbp),%eax
  401b96:	89 c7                	mov    %eax,%edi
  401b98:	e8 23 f1 ff ff       	callq  400cc0 <close@plt>
  401b9d:	90                   	nop
  401b9e:	48 8b 5d f8          	mov    -0x8(%rbp),%rbx
  401ba2:	c9                   	leaveq 
  401ba3:	c3                   	retq   

0000000000401ba4 <send_msg_2>:
  401ba4:	55                   	push   %rbp
  401ba5:	48 89 e5             	mov    %rsp,%rbp
  401ba8:	48 83 c4 80          	add    $0xffffffffffffff80,%rsp
  401bac:	89 7d 8c             	mov    %edi,-0x74(%rbp)
  401baf:	bf 00 00 00 00       	mov    $0x0,%edi
  401bb4:	e8 f7 f0 ff ff       	callq  400cb0 <dup@plt>
  401bb9:	89 45 f8             	mov    %eax,-0x8(%rbp)
  401bbc:	83 7d f8 ff          	cmpl   $0xffffffff,-0x8(%rbp)
  401bc0:	75 16                	jne    401bd8 <send_msg_2+0x34>
  401bc2:	48 8d 3d af 06 00 00 	lea    0x6af(%rip),%rdi        # 402278 <_IO_stdin_used+0x2c8>
  401bc9:	e8 62 f0 ff ff       	callq  400c30 <puts@plt>
  401bce:	bf 08 00 00 00       	mov    $0x8,%edi
  401bd3:	e8 e8 f1 ff ff       	callq  400dc0 <exit@plt>
  401bd8:	bf 00 00 00 00       	mov    $0x0,%edi
  401bdd:	e8 de f0 ff ff       	callq  400cc0 <close@plt>
  401be2:	83 f8 ff             	cmp    $0xffffffff,%eax
  401be5:	75 16                	jne    401bfd <send_msg_2+0x59>
  401be7:	48 8d 3d 9e 06 00 00 	lea    0x69e(%rip),%rdi        # 40228c <_IO_stdin_used+0x2dc>
  401bee:	e8 3d f0 ff ff       	callq  400c30 <puts@plt>
  401bf3:	bf 08 00 00 00       	mov    $0x8,%edi
  401bf8:	e8 c3 f1 ff ff       	callq  400dc0 <exit@plt>
  401bfd:	e8 ee f0 ff ff       	callq  400cf0 <tmpfile@plt>
  401c02:	48 89 45 f0          	mov    %rax,-0x10(%rbp)
  401c06:	48 83 7d f0 00       	cmpq   $0x0,-0x10(%rbp)
  401c0b:	75 16                	jne    401c23 <send_msg_2+0x7f>
  401c0d:	48 8d 3d 8b 06 00 00 	lea    0x68b(%rip),%rdi        # 40229f <_IO_stdin_used+0x2ef>
  401c14:	e8 17 f0 ff ff       	callq  400c30 <puts@plt>
  401c19:	bf 08 00 00 00       	mov    $0x8,%edi
  401c1e:	e8 9d f1 ff ff       	callq  400dc0 <exit@plt>
  401c23:	48 8b 45 f0          	mov    -0x10(%rbp),%rax
  401c27:	48 89 c1             	mov    %rax,%rcx
  401c2a:	ba 1b 00 00 00       	mov    $0x1b,%edx
  401c2f:	be 01 00 00 00       	mov    $0x1,%esi
  401c34:	48 8d 3d 79 06 00 00 	lea    0x679(%rip),%rdi        # 4022b4 <_IO_stdin_used+0x304>
  401c3b:	e8 a0 f1 ff ff       	callq  400de0 <fwrite@plt>
  401c40:	48 8b 45 f0          	mov    -0x10(%rbp),%rax
  401c44:	48 89 c6             	mov    %rax,%rsi
  401c47:	bf 0a 00 00 00       	mov    $0xa,%edi
  401c4c:	e8 7f f0 ff ff       	callq  400cd0 <fputc@plt>
  401c51:	bf 00 00 00 00       	mov    $0x0,%edi
  401c56:	e8 15 f1 ff ff       	callq  400d70 <cuserid@plt>
  401c5b:	48 89 45 e8          	mov    %rax,-0x18(%rbp)
  401c5f:	48 83 7d e8 00       	cmpq   $0x0,-0x18(%rbp)
  401c64:	75 16                	jne    401c7c <send_msg_2+0xd8>
  401c66:	48 8d 45 90          	lea    -0x70(%rbp),%rax
  401c6a:	c7 00 6e 6f 62 6f    	movl   $0x6f626f6e,(%rax)
  401c70:	66 c7 40 04 64 79    	movw   $0x7964,0x4(%rax)
  401c76:	c6 40 06 00          	movb   $0x0,0x6(%rax)
  401c7a:	eb 13                	jmp    401c8f <send_msg_2+0xeb>
  401c7c:	48 8b 55 e8          	mov    -0x18(%rbp),%rdx
  401c80:	48 8d 45 90          	lea    -0x70(%rbp),%rax
  401c84:	48 89 d6             	mov    %rdx,%rsi
  401c87:	48 89 c7             	mov    %rax,%rdi
  401c8a:	e8 91 ef ff ff       	callq  400c20 <strcpy@plt>
  401c8f:	8b 0d 27 19 20 00    	mov    0x201927(%rip),%ecx        # 6035bc <num_input_strings>
  401c95:	83 7d 8c 00          	cmpl   $0x0,-0x74(%rbp)
  401c99:	74 09                	je     401ca4 <send_msg_2+0x100>
  401c9b:	48 8d 05 7a 05 00 00 	lea    0x57a(%rip),%rax        # 40221c <_IO_stdin_used+0x26c>
  401ca2:	eb 07                	jmp    401cab <send_msg_2+0x107>
  401ca4:	48 8d 05 79 05 00 00 	lea    0x579(%rip),%rax        # 402224 <_IO_stdin_used+0x274>
  401cab:	8b 15 af 14 20 00    	mov    0x2014af(%rip),%edx        # 603160 <bomb_id>
  401cb1:	48 8d 75 90          	lea    -0x70(%rbp),%rsi
  401cb5:	48 8b 7d f0          	mov    -0x10(%rbp),%rdi
  401cb9:	48 83 ec 08          	sub    $0x8,%rsp
  401cbd:	51                   	push   %rcx
  401cbe:	49 89 c1             	mov    %rax,%r9
  401cc1:	49 89 f0             	mov    %rsi,%r8
  401cc4:	89 d1                	mov    %edx,%ecx
  401cc6:	48 8d 15 b3 14 20 00 	lea    0x2014b3(%rip),%rdx        # 603180 <lab_id>
  401ccd:	48 8d 35 59 05 00 00 	lea    0x559(%rip),%rsi        # 40222d <_IO_stdin_used+0x27d>
  401cd4:	b8 00 00 00 00       	mov    $0x0,%eax
  401cd9:	e8 42 f0 ff ff       	callq  400d20 <fprintf@plt>
  401cde:	48 83 c4 10          	add    $0x10,%rsp
  401ce2:	c7 45 fc 00 00 00 00 	movl   $0x0,-0x4(%rbp)
  401ce9:	eb 63                	jmp    401d4e <send_msg_2+0x1aa>
  401ceb:	8b 45 fc             	mov    -0x4(%rbp),%eax
  401cee:	48 63 d0             	movslq %eax,%rdx
  401cf1:	48 89 d0             	mov    %rdx,%rax
  401cf4:	48 c1 e0 02          	shl    $0x2,%rax
  401cf8:	48 01 d0             	add    %rdx,%rax
  401cfb:	48 c1 e0 04          	shl    $0x4,%rax
  401cff:	48 8d 15 da 18 20 00 	lea    0x2018da(%rip),%rdx        # 6035e0 <input_strings>
  401d06:	48 8d 34 10          	lea    (%rax,%rdx,1),%rsi
  401d0a:	8b 45 fc             	mov    -0x4(%rbp),%eax
  401d0d:	8d 78 01             	lea    0x1(%rax),%edi
  401d10:	8b 15 4a 14 20 00    	mov    0x20144a(%rip),%edx        # 603160 <bomb_id>
  401d16:	48 8d 4d 90          	lea    -0x70(%rbp),%rcx
  401d1a:	48 8b 45 f0          	mov    -0x10(%rbp),%rax
  401d1e:	48 83 ec 08          	sub    $0x8,%rsp
  401d22:	56                   	push   %rsi
  401d23:	41 89 f9             	mov    %edi,%r9d
  401d26:	49 89 c8             	mov    %rcx,%r8
  401d29:	89 d1                	mov    %edx,%ecx
  401d2b:	48 8d 15 4e 14 20 00 	lea    0x20144e(%rip),%rdx        # 603180 <lab_id>
  401d32:	48 8d 35 10 05 00 00 	lea    0x510(%rip),%rsi        # 402249 <_IO_stdin_used+0x299>
  401d39:	48 89 c7             	mov    %rax,%rdi
  401d3c:	b8 00 00 00 00       	mov    $0x0,%eax
  401d41:	e8 da ef ff ff       	callq  400d20 <fprintf@plt>
  401d46:	48 83 c4 10          	add    $0x10,%rsp
  401d4a:	83 45 fc 01          	addl   $0x1,-0x4(%rbp)
  401d4e:	8b 05 68 18 20 00    	mov    0x201868(%rip),%eax        # 6035bc <num_input_strings>
  401d54:	39 45 fc             	cmp    %eax,-0x4(%rbp)
  401d57:	7c 92                	jl     401ceb <send_msg_2+0x147>
  401d59:	48 8b 45 f0          	mov    -0x10(%rbp),%rax
  401d5d:	48 89 c7             	mov    %rax,%rdi
  401d60:	e8 3b ef ff ff       	callq  400ca0 <rewind@plt>
  401d65:	4c 8d 05 64 05 00 00 	lea    0x564(%rip),%r8        # 4022d0 <_IO_stdin_used+0x320>
  401d6c:	48 8d 0d 67 05 00 00 	lea    0x567(%rip),%rcx        # 4022da <_IO_stdin_used+0x32a>
  401d73:	48 8d 15 6b 05 00 00 	lea    0x56b(%rip),%rdx        # 4022e5 <_IO_stdin_used+0x335>
  401d7a:	48 8d 35 7b 05 00 00 	lea    0x57b(%rip),%rsi        # 4022fc <_IO_stdin_used+0x34c>
  401d81:	48 8d 3d 98 1e 20 00 	lea    0x201e98(%rip),%rdi        # 603c20 <scratch>
  401d88:	b8 00 00 00 00       	mov    $0x0,%eax
  401d8d:	e8 1e f0 ff ff       	callq  400db0 <sprintf@plt>
  401d92:	48 8d 3d 87 1e 20 00 	lea    0x201e87(%rip),%rdi        # 603c20 <scratch>
  401d99:	e8 d2 ee ff ff       	callq  400c70 <system@plt>
  401d9e:	85 c0                	test   %eax,%eax
  401da0:	74 16                	je     401db8 <send_msg_2+0x214>
  401da2:	48 8d 3d 5c 05 00 00 	lea    0x55c(%rip),%rdi        # 402305 <_IO_stdin_used+0x355>
  401da9:	e8 82 ee ff ff       	callq  400c30 <puts@plt>
  401dae:	bf 08 00 00 00       	mov    $0x8,%edi
  401db3:	e8 08 f0 ff ff       	callq  400dc0 <exit@plt>
  401db8:	48 8b 45 f0          	mov    -0x10(%rbp),%rax
  401dbc:	48 89 c7             	mov    %rax,%rdi
  401dbf:	e8 8c ee ff ff       	callq  400c50 <fclose@plt>
  401dc4:	85 c0                	test   %eax,%eax
  401dc6:	74 16                	je     401dde <send_msg_2+0x23a>
  401dc8:	48 8d 3d 50 05 00 00 	lea    0x550(%rip),%rdi        # 40231f <_IO_stdin_used+0x36f>
  401dcf:	e8 5c ee ff ff       	callq  400c30 <puts@plt>
  401dd4:	bf 08 00 00 00       	mov    $0x8,%edi
  401dd9:	e8 e2 ef ff ff       	callq  400dc0 <exit@plt>
  401dde:	8b 45 f8             	mov    -0x8(%rbp),%eax
  401de1:	89 c7                	mov    %eax,%edi
  401de3:	e8 c8 ee ff ff       	callq  400cb0 <dup@plt>
  401de8:	85 c0                	test   %eax,%eax
  401dea:	74 16                	je     401e02 <send_msg_2+0x25e>
  401dec:	48 8d 3d 45 05 00 00 	lea    0x545(%rip),%rdi        # 402338 <_IO_stdin_used+0x388>
  401df3:	e8 38 ee ff ff       	callq  400c30 <puts@plt>
  401df8:	bf 08 00 00 00       	mov    $0x8,%edi
  401dfd:	e8 be ef ff ff       	callq  400dc0 <exit@plt>
  401e02:	8b 45 f8             	mov    -0x8(%rbp),%eax
  401e05:	89 c7                	mov    %eax,%edi
  401e07:	e8 b4 ee ff ff       	callq  400cc0 <close@plt>
  401e0c:	85 c0                	test   %eax,%eax
  401e0e:	74 16                	je     401e26 <send_msg_2+0x282>
  401e10:	48 8d 3d 3c 05 00 00 	lea    0x53c(%rip),%rdi        # 402353 <_IO_stdin_used+0x3a3>
  401e17:	e8 14 ee ff ff       	callq  400c30 <puts@plt>
  401e1c:	bf 08 00 00 00       	mov    $0x8,%edi
  401e21:	e8 9a ef ff ff       	callq  400dc0 <exit@plt>
  401e26:	90                   	nop
  401e27:	c9                   	leaveq 
  401e28:	c3                   	retq   

0000000000401e29 <explode_bomb>:
  401e29:	55                   	push   %rbp
  401e2a:	48 89 e5             	mov    %rsp,%rbp
  401e2d:	48 8d 3d 36 05 00 00 	lea    0x536(%rip),%rdi        # 40236a <_IO_stdin_used+0x3ba>
  401e34:	e8 f7 ed ff ff       	callq  400c30 <puts@plt>
  401e39:	48 8d 3d 33 05 00 00 	lea    0x533(%rip),%rdi        # 402373 <_IO_stdin_used+0x3c3>
  401e40:	e8 eb ed ff ff       	callq  400c30 <puts@plt>
  401e45:	bf 00 00 00 00       	mov    $0x0,%edi
  401e4a:	e8 b2 f9 ff ff       	callq  401801 <send_msg>
  401e4f:	48 8d 3d 3a 05 00 00 	lea    0x53a(%rip),%rdi        # 402390 <_IO_stdin_used+0x3e0>
  401e56:	e8 d5 ed ff ff       	callq  400c30 <puts@plt>
  401e5b:	bf 08 00 00 00       	mov    $0x8,%edi
  401e60:	e8 5b ef ff ff       	callq  400dc0 <exit@plt>

0000000000401e65 <phase_defused>:
  401e65:	55                   	push   %rbp
  401e66:	48 89 e5             	mov    %rsp,%rbp
  401e69:	48 83 c4 80          	add    $0xffffffffffffff80,%rsp
  401e6d:	bf 01 00 00 00       	mov    $0x1,%edi
  401e72:	e8 8a f9 ff ff       	callq  401801 <send_msg>
  401e77:	8b 05 3f 17 20 00    	mov    0x20173f(%rip),%eax        # 6035bc <num_input_strings>
  401e7d:	83 f8 03             	cmp    $0x3,%eax
  401e80:	0f 85 a5 00 00 00    	jne    401f2b <phase_defused+0xc6>
  401e86:	48 8d 7d 90          	lea    -0x70(%rbp),%rdi
  401e8a:	48 8d 75 94          	lea    -0x6c(%rbp),%rsi
  401e8e:	48 8d 55 98          	lea    -0x68(%rbp),%rdx
  401e92:	48 8d 45 9c          	lea    -0x64(%rbp),%rax
  401e96:	48 83 ec 08          	sub    $0x8,%rsp
  401e9a:	48 8d 4d a0          	lea    -0x60(%rbp),%rcx
  401e9e:	51                   	push   %rcx
  401e9f:	48 8d 4d 88          	lea    -0x78(%rbp),%rcx
  401ea3:	51                   	push   %rcx
  401ea4:	48 8d 4d 8c          	lea    -0x74(%rbp),%rcx
  401ea8:	51                   	push   %rcx
  401ea9:	49 89 f9             	mov    %rdi,%r9
  401eac:	49 89 f0             	mov    %rsi,%r8
  401eaf:	48 89 d1             	mov    %rdx,%rcx
  401eb2:	48 89 c2             	mov    %rax,%rdx
  401eb5:	48 8d 35 f7 04 00 00 	lea    0x4f7(%rip),%rsi        # 4023b3 <_IO_stdin_used+0x403>
  401ebc:	48 8d 3d 6d 17 20 00 	lea    0x20176d(%rip),%rdi        # 603630 <input_strings+0x50>
  401ec3:	b8 00 00 00 00       	mov    $0x0,%eax
  401ec8:	e8 83 ee ff ff       	callq  400d50 <__isoc99_sscanf@plt>
  401ecd:	48 83 c4 20          	add    $0x20,%rsp
  401ed1:	89 45 fc             	mov    %eax,-0x4(%rbp)
  401ed4:	83 7d fc 07          	cmpl   $0x7,-0x4(%rbp)
  401ed8:	75 39                	jne    401f13 <phase_defused+0xae>
  401eda:	48 8d 45 a0          	lea    -0x60(%rbp),%rax
  401ede:	48 8d 35 e3 04 00 00 	lea    0x4e3(%rip),%rsi        # 4023c8 <_IO_stdin_used+0x418>
  401ee5:	48 89 c7             	mov    %rax,%rdi
  401ee8:	e8 03 f5 ff ff       	callq  4013f0 <strings_not_equal>
  401eed:	85 c0                	test   %eax,%eax
  401eef:	75 22                	jne    401f13 <phase_defused+0xae>
  401ef1:	48 8d 3d d8 04 00 00 	lea    0x4d8(%rip),%rdi        # 4023d0 <_IO_stdin_used+0x420>
  401ef8:	e8 33 ed ff ff       	callq  400c30 <puts@plt>
  401efd:	48 8d 3d f4 04 00 00 	lea    0x4f4(%rip),%rdi        # 4023f8 <_IO_stdin_used+0x448>
  401f04:	e8 27 ed ff ff       	callq  400c30 <puts@plt>
  401f09:	b8 00 00 00 00       	mov    $0x0,%eax
  401f0e:	e8 1e f3 ff ff       	callq  401231 <secret_phase>
  401f13:	48 8d 3d 16 05 00 00 	lea    0x516(%rip),%rdi        # 402430 <_IO_stdin_used+0x480>
  401f1a:	e8 11 ed ff ff       	callq  400c30 <puts@plt>
  401f1f:	48 8d 3d 3a 05 00 00 	lea    0x53a(%rip),%rdi        # 402460 <_IO_stdin_used+0x4b0>
  401f26:	e8 05 ed ff ff       	callq  400c30 <puts@plt>
  401f2b:	90                   	nop
  401f2c:	c9                   	leaveq 
  401f2d:	c3                   	retq   
  401f2e:	66 90                	xchg   %ax,%ax

0000000000401f30 <__libc_csu_init>:
  401f30:	41 57                	push   %r15
  401f32:	41 56                	push   %r14
  401f34:	41 89 ff             	mov    %edi,%r15d
  401f37:	41 55                	push   %r13
  401f39:	41 54                	push   %r12
  401f3b:	4c 8d 25 c6 0e 20 00 	lea    0x200ec6(%rip),%r12        # 602e08 <__frame_dummy_init_array_entry>
  401f42:	55                   	push   %rbp
  401f43:	48 8d 2d c6 0e 20 00 	lea    0x200ec6(%rip),%rbp        # 602e10 <__init_array_end>
  401f4a:	53                   	push   %rbx
  401f4b:	49 89 f6             	mov    %rsi,%r14
  401f4e:	49 89 d5             	mov    %rdx,%r13
  401f51:	4c 29 e5             	sub    %r12,%rbp
  401f54:	48 83 ec 08          	sub    $0x8,%rsp
  401f58:	48 c1 fd 03          	sar    $0x3,%rbp
  401f5c:	e8 77 ec ff ff       	callq  400bd8 <_init>
  401f61:	48 85 ed             	test   %rbp,%rbp
  401f64:	74 20                	je     401f86 <__libc_csu_init+0x56>
  401f66:	31 db                	xor    %ebx,%ebx
  401f68:	0f 1f 84 00 00 00 00 	nopl   0x0(%rax,%rax,1)
  401f6f:	00 
  401f70:	4c 89 ea             	mov    %r13,%rdx
  401f73:	4c 89 f6             	mov    %r14,%rsi
  401f76:	44 89 ff             	mov    %r15d,%edi
  401f79:	41 ff 14 dc          	callq  *(%r12,%rbx,8)
  401f7d:	48 83 c3 01          	add    $0x1,%rbx
  401f81:	48 39 dd             	cmp    %rbx,%rbp
  401f84:	75 ea                	jne    401f70 <__libc_csu_init+0x40>
  401f86:	48 83 c4 08          	add    $0x8,%rsp
  401f8a:	5b                   	pop    %rbx
  401f8b:	5d                   	pop    %rbp
  401f8c:	41 5c                	pop    %r12
  401f8e:	41 5d                	pop    %r13
  401f90:	41 5e                	pop    %r14
  401f92:	41 5f                	pop    %r15
  401f94:	c3                   	retq   
  401f95:	90                   	nop
  401f96:	66 2e 0f 1f 84 00 00 	nopw   %cs:0x0(%rax,%rax,1)
  401f9d:	00 00 00 

0000000000401fa0 <__libc_csu_fini>:
  401fa0:	f3 c3                	repz retq 

Disassembly of section .fini:

0000000000401fa4 <_fini>:
  401fa4:	48 83 ec 08          	sub    $0x8,%rsp
  401fa8:	48 83 c4 08          	add    $0x8,%rsp
  401fac:	c3                   	retq   
